

Microchip MPLAB XC8 Assembler V2.32 build 20210201212658 
                                                                                               Sun Mar 19 15:07:45 2023

Microchip MPLAB XC8 C Compiler v2.32 (Free license) build 20210201212658 Og1 
     1                           	processor	16F877A
     2                           	pagewidth 120
     3                           	opt	flic
     4                           	psect	idataCOMMON,global,class=CODE,delta=2,noexec
     5                           	psect	idataBANK0,global,class=CODE,delta=2,noexec
     6                           	psect	idataBANK1,global,class=CODE,delta=2,noexec
     7                           	psect	strings,global,class=STRING,delta=2,noexec
     8                           	psect	stringtext,global,reloc=256,class=STRCODE,delta=2,noexec
     9                           	psect	cinit,global,class=CODE,merge=1,delta=2
    10                           	psect	bssCOMMON,global,class=COMMON,space=1,delta=1,noexec
    11                           	psect	dataCOMMON,global,class=COMMON,space=1,delta=1,noexec
    12                           	psect	bssBANK0,global,class=BANK0,space=1,delta=1,noexec
    13                           	psect	dataBANK0,global,class=BANK0,space=1,delta=1,noexec
    14                           	psect	bssBANK1,global,class=BANK1,space=1,delta=1,noexec
    15                           	psect	dataBANK1,global,class=BANK1,space=1,delta=1,noexec
    16                           	psect	inittext,global,class=CODE,delta=2
    17                           	psect	clrtext,global,class=CODE,delta=2
    18                           	psect	cstackBANK3,global,class=BANK3,space=1,delta=1,noexec
    19                           	psect	cstackCOMMON,global,class=COMMON,space=1,delta=1,noexec
    20                           	psect	cstackBANK0,global,class=BANK0,space=1,delta=1,noexec
    21                           	psect	maintext,global,class=CODE,split=1,delta=2
    22                           	psect	text1,local,class=CODE,merge=1,delta=2
    23                           	psect	text2,local,class=CODE,merge=1,delta=2,group=2
    24                           	psect	text3,local,class=CODE,merge=1,delta=2
    25                           	psect	text4,local,class=CODE,merge=1,delta=2
    26                           	psect	text5,local,class=CODE,merge=1,delta=2
    27                           	psect	text6,local,class=CODE,merge=1,delta=2
    28                           	psect	text7,local,class=CODE,merge=1,delta=2
    29                           	psect	text8,local,class=CODE,merge=1,delta=2
    30                           	psect	text9,local,class=CODE,merge=1,delta=2,group=2
    31                           	psect	text10,local,class=CODE,merge=1,delta=2
    32                           	psect	text11,local,class=CODE,merge=1,delta=2
    33                           	psect	text12,local,class=CODE,merge=1,delta=2
    34                           	psect	text13,local,class=CODE,merge=1,delta=2
    35                           	psect	text14,local,class=CODE,merge=1,delta=2
    36                           	psect	text15,local,class=CODE,merge=1,delta=2
    37                           	psect	text16,local,class=CODE,merge=1,delta=2,group=1
    38                           	psect	text17,local,class=CODE,merge=1,delta=2
    39                           	psect	text18,local,class=CODE,merge=1,delta=2
    40                           	psect	text19,local,class=CODE,merge=1,delta=2
    41                           	psect	text20,local,class=CODE,merge=1,delta=2
    42                           	psect	text21,local,class=CODE,merge=1,delta=2
    43                           	psect	text22,local,class=CODE,merge=1,delta=2
    44                           	psect	text23,local,class=CODE,merge=1,delta=2
    45                           	psect	text24,local,class=CODE,merge=1,delta=2
    46                           	psect	text25,local,class=CODE,merge=1,delta=2
    47                           	psect	text26,local,class=CODE,merge=1,delta=2
    48                           	psect	text27,local,class=CODE,merge=1,delta=2,group=1
    49                           	psect	text28,local,class=CODE,merge=1,delta=2
    50                           	psect	text29,local,class=CODE,merge=1,delta=2
    51                           	psect	text30,local,class=CODE,merge=1,delta=2
    52                           	psect	text31,local,class=CODE,merge=1,delta=2
    53                           	psect	text32,local,class=CODE,merge=1,delta=2
    54                           	psect	text33,local,class=CODE,merge=1,delta=2
    55                           	psect	text34,local,class=CODE,merge=1,delta=2
    56                           	psect	text35,local,class=CODE,merge=1,delta=2,group=1
    57                           	psect	text36,local,class=CODE,merge=1,delta=2,group=1
    58                           	psect	text37,local,class=CODE,merge=1,delta=2
    59                           	psect	text38,local,class=CODE,merge=1,delta=2,group=2
    60                           	psect	text39,local,class=CODE,merge=1,delta=2
    61                           	psect	text40,local,class=CODE,merge=1,delta=2
    62                           	psect	text41,local,class=CODE,merge=1,delta=2
    63                           	psect	text42,local,class=CODE,merge=1,delta=2
    64                           	psect	text43,local,class=CODE,merge=1,delta=2
    65                           	psect	text44,local,class=CODE,merge=1,delta=2
    66                           	psect	text45,local,class=CODE,merge=1,delta=2
    67                           	psect	text46,local,class=CODE,merge=1,delta=2
    68                           	psect	text47,local,class=CODE,merge=1,delta=2
    69                           	psect	text48,local,class=CODE,merge=1,delta=2,group=1
    70                           	psect	text49,local,class=CODE,merge=1,delta=2
    71                           	psect	intentry,global,class=CODE,delta=2
    72                           	psect	config,global,abs,ovrld,class=CONFIG,space=4,delta=2,noexec
    73                           	dabs	1,0x7E,2
    74  0000                     
    75                           ; Version 2.20
    76                           ; Generated 12/02/2020 GMT
    77                           ; 
    78                           ; Copyright © 2020, Microchip Technology Inc. and its subsidiaries ("Microchip")
    79                           ; All rights reserved.
    80                           ; 
    81                           ; This software is developed by Microchip Technology Inc. and its subsidiaries ("Microch
      +                          ip").
    82                           ; 
    83                           ; Redistribution and use in source and binary forms, with or without modification, are
    84                           ; permitted provided that the following conditions are met:
    85                           ; 
    86                           ;     1. Redistributions of source code must retain the above copyright notice, this lis
      +                          t of
    87                           ;        conditions and the following disclaimer.
    88                           ; 
    89                           ;     2. Redistributions in binary form must reproduce the above copyright notice, this 
      +                          list
    90                           ;        of conditions and the following disclaimer in the documentation and/or other
    91                           ;        materials provided with the distribution.
    92                           ; 
    93                           ;     3. Microchip's name may not be used to endorse or promote products derived from th
      +                          is
    94                           ;        software without specific prior written permission.
    95                           ; 
    96                           ; THIS SOFTWARE IS PROVIDED BY MICROCHIP "AS IS" AND ANY EXPRESS OR IMPLIED WARRANTIES,
    97                           ; INCLUDING, BUT NOT LIMITED TO, THE IMPLIED WARRANTIES OF MERCHANTABILITY AND FITNESS F
      +                          OR
    98                           ; PURPOSE ARE DISCLAIMED.  IN NO EVENT SHALL MICROCHIP BE LIABLE FOR ANY DIRECT, INDIREC
      +                          T,
    99                           ; INCIDENTAL, SPECIAL, EXEMPLARY, OR CONSEQUENTIAL DAMAGES (INCLUDING BUT NOT LIMITED TO
   100                           ; PROCUREMENT OF SUBSTITUTE GOODS OR SERVICES; LOSS OF USE, DATA OR PROFITS; OR BUSINESS
   101                           ; INTERRUPTION) HOWSOEVER CAUSED AND ON ANY THEORY OF LIABILITY, WHETHER IN CONTRACT, ST
      +                          RICT
   102                           ; LIABILITY, OR TORT (INCLUDING NEGLIGENCE OR OTHERWISE) ARISING IN ANY WAY OUT OF THE U
      +                          SE OF
   103                           ; THIS SOFTWARE, EVEN IF ADVISED OF THE POSSIBILITY OF SUCH DAMAGE.
   104                           ; 
   105                           ; 
   106                           ; Code-generator required, PIC16F877A Definitions
   107                           ; 
   108                           ; SFR Addresses
   109  0000                     	;# 
   110  0001                     	;# 
   111  0002                     	;# 
   112  0003                     	;# 
   113  0004                     	;# 
   114  0005                     	;# 
   115  0006                     	;# 
   116  0007                     	;# 
   117  0008                     	;# 
   118  0009                     	;# 
   119  000A                     	;# 
   120  000B                     	;# 
   121  000C                     	;# 
   122  000D                     	;# 
   123  000E                     	;# 
   124  000E                     	;# 
   125  000F                     	;# 
   126  0010                     	;# 
   127  0011                     	;# 
   128  0012                     	;# 
   129  0013                     	;# 
   130  0014                     	;# 
   131  0015                     	;# 
   132  0015                     	;# 
   133  0016                     	;# 
   134  0017                     	;# 
   135  0018                     	;# 
   136  0019                     	;# 
   137  001A                     	;# 
   138  001B                     	;# 
   139  001B                     	;# 
   140  001C                     	;# 
   141  001D                     	;# 
   142  001E                     	;# 
   143  001F                     	;# 
   144  0081                     	;# 
   145  0085                     	;# 
   146  0086                     	;# 
   147  0087                     	;# 
   148  0088                     	;# 
   149  0089                     	;# 
   150  008C                     	;# 
   151  008D                     	;# 
   152  008E                     	;# 
   153  0091                     	;# 
   154  0092                     	;# 
   155  0093                     	;# 
   156  0094                     	;# 
   157  0098                     	;# 
   158  0099                     	;# 
   159  009C                     	;# 
   160  009D                     	;# 
   161  009E                     	;# 
   162  009F                     	;# 
   163  010C                     	;# 
   164  010D                     	;# 
   165  010E                     	;# 
   166  010F                     	;# 
   167  018C                     	;# 
   168  018D                     	;# 
   169  0000                     	;# 
   170  0001                     	;# 
   171  0002                     	;# 
   172  0003                     	;# 
   173  0004                     	;# 
   174  0005                     	;# 
   175  0006                     	;# 
   176  0007                     	;# 
   177  0008                     	;# 
   178  0009                     	;# 
   179  000A                     	;# 
   180  000B                     	;# 
   181  000C                     	;# 
   182  000D                     	;# 
   183  000E                     	;# 
   184  000E                     	;# 
   185  000F                     	;# 
   186  0010                     	;# 
   187  0011                     	;# 
   188  0012                     	;# 
   189  0013                     	;# 
   190  0014                     	;# 
   191  0015                     	;# 
   192  0015                     	;# 
   193  0016                     	;# 
   194  0017                     	;# 
   195  0018                     	;# 
   196  0019                     	;# 
   197  001A                     	;# 
   198  001B                     	;# 
   199  001B                     	;# 
   200  001C                     	;# 
   201  001D                     	;# 
   202  001E                     	;# 
   203  001F                     	;# 
   204  0081                     	;# 
   205  0085                     	;# 
   206  0086                     	;# 
   207  0087                     	;# 
   208  0088                     	;# 
   209  0089                     	;# 
   210  008C                     	;# 
   211  008D                     	;# 
   212  008E                     	;# 
   213  0091                     	;# 
   214  0092                     	;# 
   215  0093                     	;# 
   216  0094                     	;# 
   217  0098                     	;# 
   218  0099                     	;# 
   219  009C                     	;# 
   220  009D                     	;# 
   221  009E                     	;# 
   222  009F                     	;# 
   223  010C                     	;# 
   224  010D                     	;# 
   225  010E                     	;# 
   226  010F                     	;# 
   227  018C                     	;# 
   228  018D                     	;# 
   229  0000                     	;# 
   230  0001                     	;# 
   231  0002                     	;# 
   232  0003                     	;# 
   233  0004                     	;# 
   234  0005                     	;# 
   235  0006                     	;# 
   236  0007                     	;# 
   237  0008                     	;# 
   238  0009                     	;# 
   239  000A                     	;# 
   240  000B                     	;# 
   241  000C                     	;# 
   242  000D                     	;# 
   243  000E                     	;# 
   244  000E                     	;# 
   245  000F                     	;# 
   246  0010                     	;# 
   247  0011                     	;# 
   248  0012                     	;# 
   249  0013                     	;# 
   250  0014                     	;# 
   251  0015                     	;# 
   252  0015                     	;# 
   253  0016                     	;# 
   254  0017                     	;# 
   255  0018                     	;# 
   256  0019                     	;# 
   257  001A                     	;# 
   258  001B                     	;# 
   259  001B                     	;# 
   260  001C                     	;# 
   261  001D                     	;# 
   262  001E                     	;# 
   263  001F                     	;# 
   264  0081                     	;# 
   265  0085                     	;# 
   266  0086                     	;# 
   267  0087                     	;# 
   268  0088                     	;# 
   269  0089                     	;# 
   270  008C                     	;# 
   271  008D                     	;# 
   272  008E                     	;# 
   273  0091                     	;# 
   274  0092                     	;# 
   275  0093                     	;# 
   276  0094                     	;# 
   277  0098                     	;# 
   278  0099                     	;# 
   279  009C                     	;# 
   280  009D                     	;# 
   281  009E                     	;# 
   282  009F                     	;# 
   283  010C                     	;# 
   284  010D                     	;# 
   285  010E                     	;# 
   286  010F                     	;# 
   287  018C                     	;# 
   288  018D                     	;# 
   289  0000                     	;# 
   290  0001                     	;# 
   291  0002                     	;# 
   292  0003                     	;# 
   293  0004                     	;# 
   294  0005                     	;# 
   295  0006                     	;# 
   296  0007                     	;# 
   297  0008                     	;# 
   298  0009                     	;# 
   299  000A                     	;# 
   300  000B                     	;# 
   301  000C                     	;# 
   302  000D                     	;# 
   303  000E                     	;# 
   304  000E                     	;# 
   305  000F                     	;# 
   306  0010                     	;# 
   307  0011                     	;# 
   308  0012                     	;# 
   309  0013                     	;# 
   310  0014                     	;# 
   311  0015                     	;# 
   312  0015                     	;# 
   313  0016                     	;# 
   314  0017                     	;# 
   315  0018                     	;# 
   316  0019                     	;# 
   317  001A                     	;# 
   318  001B                     	;# 
   319  001B                     	;# 
   320  001C                     	;# 
   321  001D                     	;# 
   322  001E                     	;# 
   323  001F                     	;# 
   324  0081                     	;# 
   325  0085                     	;# 
   326  0086                     	;# 
   327  0087                     	;# 
   328  0088                     	;# 
   329  0089                     	;# 
   330  008C                     	;# 
   331  008D                     	;# 
   332  008E                     	;# 
   333  0091                     	;# 
   334  0092                     	;# 
   335  0093                     	;# 
   336  0094                     	;# 
   337  0098                     	;# 
   338  0099                     	;# 
   339  009C                     	;# 
   340  009D                     	;# 
   341  009E                     	;# 
   342  009F                     	;# 
   343  010C                     	;# 
   344  010D                     	;# 
   345  010E                     	;# 
   346  010F                     	;# 
   347  018C                     	;# 
   348  018D                     	;# 
   349  0000                     	;# 
   350  0001                     	;# 
   351  0002                     	;# 
   352  0003                     	;# 
   353  0004                     	;# 
   354  0005                     	;# 
   355  0006                     	;# 
   356  0007                     	;# 
   357  0008                     	;# 
   358  0009                     	;# 
   359  000A                     	;# 
   360  000B                     	;# 
   361  000C                     	;# 
   362  000D                     	;# 
   363  000E                     	;# 
   364  000E                     	;# 
   365  000F                     	;# 
   366  0010                     	;# 
   367  0011                     	;# 
   368  0012                     	;# 
   369  0013                     	;# 
   370  0014                     	;# 
   371  0015                     	;# 
   372  0015                     	;# 
   373  0016                     	;# 
   374  0017                     	;# 
   375  0018                     	;# 
   376  0019                     	;# 
   377  001A                     	;# 
   378  001B                     	;# 
   379  001B                     	;# 
   380  001C                     	;# 
   381  001D                     	;# 
   382  001E                     	;# 
   383  001F                     	;# 
   384  0081                     	;# 
   385  0085                     	;# 
   386  0086                     	;# 
   387  0087                     	;# 
   388  0088                     	;# 
   389  0089                     	;# 
   390  008C                     	;# 
   391  008D                     	;# 
   392  008E                     	;# 
   393  0091                     	;# 
   394  0092                     	;# 
   395  0093                     	;# 
   396  0094                     	;# 
   397  0098                     	;# 
   398  0099                     	;# 
   399  009C                     	;# 
   400  009D                     	;# 
   401  009E                     	;# 
   402  009F                     	;# 
   403  010C                     	;# 
   404  010D                     	;# 
   405  010E                     	;# 
   406  010F                     	;# 
   407  018C                     	;# 
   408  018D                     	;# 
   409  0000                     	;# 
   410  0001                     	;# 
   411  0002                     	;# 
   412  0003                     	;# 
   413  0004                     	;# 
   414  0005                     	;# 
   415  0006                     	;# 
   416  0007                     	;# 
   417  0008                     	;# 
   418  0009                     	;# 
   419  000A                     	;# 
   420  000B                     	;# 
   421  000C                     	;# 
   422  000D                     	;# 
   423  000E                     	;# 
   424  000E                     	;# 
   425  000F                     	;# 
   426  0010                     	;# 
   427  0011                     	;# 
   428  0012                     	;# 
   429  0013                     	;# 
   430  0014                     	;# 
   431  0015                     	;# 
   432  0015                     	;# 
   433  0016                     	;# 
   434  0017                     	;# 
   435  0018                     	;# 
   436  0019                     	;# 
   437  001A                     	;# 
   438  001B                     	;# 
   439  001B                     	;# 
   440  001C                     	;# 
   441  001D                     	;# 
   442  001E                     	;# 
   443  001F                     	;# 
   444  0081                     	;# 
   445  0085                     	;# 
   446  0086                     	;# 
   447  0087                     	;# 
   448  0088                     	;# 
   449  0089                     	;# 
   450  008C                     	;# 
   451  008D                     	;# 
   452  008E                     	;# 
   453  0091                     	;# 
   454  0092                     	;# 
   455  0093                     	;# 
   456  0094                     	;# 
   457  0098                     	;# 
   458  0099                     	;# 
   459  009C                     	;# 
   460  009D                     	;# 
   461  009E                     	;# 
   462  009F                     	;# 
   463  010C                     	;# 
   464  010D                     	;# 
   465  010E                     	;# 
   466  010F                     	;# 
   467  018C                     	;# 
   468  018D                     	;# 
   469  0000                     	;# 
   470  0001                     	;# 
   471  0002                     	;# 
   472  0003                     	;# 
   473  0004                     	;# 
   474  0005                     	;# 
   475  0006                     	;# 
   476  0007                     	;# 
   477  0008                     	;# 
   478  0009                     	;# 
   479  000A                     	;# 
   480  000B                     	;# 
   481  000C                     	;# 
   482  000D                     	;# 
   483  000E                     	;# 
   484  000E                     	;# 
   485  000F                     	;# 
   486  0010                     	;# 
   487  0011                     	;# 
   488  0012                     	;# 
   489  0013                     	;# 
   490  0014                     	;# 
   491  0015                     	;# 
   492  0015                     	;# 
   493  0016                     	;# 
   494  0017                     	;# 
   495  0018                     	;# 
   496  0019                     	;# 
   497  001A                     	;# 
   498  001B                     	;# 
   499  001B                     	;# 
   500  001C                     	;# 
   501  001D                     	;# 
   502  001E                     	;# 
   503  001F                     	;# 
   504  0081                     	;# 
   505  0085                     	;# 
   506  0086                     	;# 
   507  0087                     	;# 
   508  0088                     	;# 
   509  0089                     	;# 
   510  008C                     	;# 
   511  008D                     	;# 
   512  008E                     	;# 
   513  0091                     	;# 
   514  0092                     	;# 
   515  0093                     	;# 
   516  0094                     	;# 
   517  0098                     	;# 
   518  0099                     	;# 
   519  009C                     	;# 
   520  009D                     	;# 
   521  009E                     	;# 
   522  009F                     	;# 
   523  010C                     	;# 
   524  010D                     	;# 
   525  010E                     	;# 
   526  010F                     	;# 
   527  018C                     	;# 
   528  018D                     	;# 
   529  0000                     	;# 
   530  0001                     	;# 
   531  0002                     	;# 
   532  0003                     	;# 
   533  0004                     	;# 
   534  0005                     	;# 
   535  0006                     	;# 
   536  0007                     	;# 
   537  0008                     	;# 
   538  0009                     	;# 
   539  000A                     	;# 
   540  000B                     	;# 
   541  000C                     	;# 
   542  000D                     	;# 
   543  000E                     	;# 
   544  000E                     	;# 
   545  000F                     	;# 
   546  0010                     	;# 
   547  0011                     	;# 
   548  0012                     	;# 
   549  0013                     	;# 
   550  0014                     	;# 
   551  0015                     	;# 
   552  0015                     	;# 
   553  0016                     	;# 
   554  0017                     	;# 
   555  0018                     	;# 
   556  0019                     	;# 
   557  001A                     	;# 
   558  001B                     	;# 
   559  001B                     	;# 
   560  001C                     	;# 
   561  001D                     	;# 
   562  001E                     	;# 
   563  001F                     	;# 
   564  0081                     	;# 
   565  0085                     	;# 
   566  0086                     	;# 
   567  0087                     	;# 
   568  0088                     	;# 
   569  0089                     	;# 
   570  008C                     	;# 
   571  008D                     	;# 
   572  008E                     	;# 
   573  0091                     	;# 
   574  0092                     	;# 
   575  0093                     	;# 
   576  0094                     	;# 
   577  0098                     	;# 
   578  0099                     	;# 
   579  009C                     	;# 
   580  009D                     	;# 
   581  009E                     	;# 
   582  009F                     	;# 
   583  010C                     	;# 
   584  010D                     	;# 
   585  010E                     	;# 
   586  010F                     	;# 
   587  018C                     	;# 
   588  018D                     	;# 
   589  0000                     	;# 
   590  0001                     	;# 
   591  0002                     	;# 
   592  0003                     	;# 
   593  0004                     	;# 
   594  0005                     	;# 
   595  0006                     	;# 
   596  0007                     	;# 
   597  0008                     	;# 
   598  0009                     	;# 
   599  000A                     	;# 
   600  000B                     	;# 
   601  000C                     	;# 
   602  000D                     	;# 
   603  000E                     	;# 
   604  000E                     	;# 
   605  000F                     	;# 
   606  0010                     	;# 
   607  0011                     	;# 
   608  0012                     	;# 
   609  0013                     	;# 
   610  0014                     	;# 
   611  0015                     	;# 
   612  0015                     	;# 
   613  0016                     	;# 
   614  0017                     	;# 
   615  0018                     	;# 
   616  0019                     	;# 
   617  001A                     	;# 
   618  001B                     	;# 
   619  001B                     	;# 
   620  001C                     	;# 
   621  001D                     	;# 
   622  001E                     	;# 
   623  001F                     	;# 
   624  0081                     	;# 
   625  0085                     	;# 
   626  0086                     	;# 
   627  0087                     	;# 
   628  0088                     	;# 
   629  0089                     	;# 
   630  008C                     	;# 
   631  008D                     	;# 
   632  008E                     	;# 
   633  0091                     	;# 
   634  0092                     	;# 
   635  0093                     	;# 
   636  0094                     	;# 
   637  0098                     	;# 
   638  0099                     	;# 
   639  009C                     	;# 
   640  009D                     	;# 
   641  009E                     	;# 
   642  009F                     	;# 
   643  010C                     	;# 
   644  010D                     	;# 
   645  010E                     	;# 
   646  010F                     	;# 
   647  018C                     	;# 
   648  018D                     	;# 
   649  0000                     	;# 
   650  0001                     	;# 
   651  0002                     	;# 
   652  0003                     	;# 
   653  0004                     	;# 
   654  0005                     	;# 
   655  0006                     	;# 
   656  0007                     	;# 
   657  0008                     	;# 
   658  0009                     	;# 
   659  000A                     	;# 
   660  000B                     	;# 
   661  000C                     	;# 
   662  000D                     	;# 
   663  000E                     	;# 
   664  000E                     	;# 
   665  000F                     	;# 
   666  0010                     	;# 
   667  0011                     	;# 
   668  0012                     	;# 
   669  0013                     	;# 
   670  0014                     	;# 
   671  0015                     	;# 
   672  0015                     	;# 
   673  0016                     	;# 
   674  0017                     	;# 
   675  0018                     	;# 
   676  0019                     	;# 
   677  001A                     	;# 
   678  001B                     	;# 
   679  001B                     	;# 
   680  001C                     	;# 
   681  001D                     	;# 
   682  001E                     	;# 
   683  001F                     	;# 
   684  0081                     	;# 
   685  0085                     	;# 
   686  0086                     	;# 
   687  0087                     	;# 
   688  0088                     	;# 
   689  0089                     	;# 
   690  008C                     	;# 
   691  008D                     	;# 
   692  008E                     	;# 
   693  0091                     	;# 
   694  0092                     	;# 
   695  0093                     	;# 
   696  0094                     	;# 
   697  0098                     	;# 
   698  0099                     	;# 
   699  009C                     	;# 
   700  009D                     	;# 
   701  009E                     	;# 
   702  009F                     	;# 
   703  010C                     	;# 
   704  010D                     	;# 
   705  010E                     	;# 
   706  010F                     	;# 
   707  018C                     	;# 
   708  018D                     	;# 
   709  0000                     	;# 
   710  0001                     	;# 
   711  0002                     	;# 
   712  0003                     	;# 
   713  0004                     	;# 
   714  0005                     	;# 
   715  0006                     	;# 
   716  0007                     	;# 
   717  0008                     	;# 
   718  0009                     	;# 
   719  000A                     	;# 
   720  000B                     	;# 
   721  000C                     	;# 
   722  000D                     	;# 
   723  000E                     	;# 
   724  000E                     	;# 
   725  000F                     	;# 
   726  0010                     	;# 
   727  0011                     	;# 
   728  0012                     	;# 
   729  0013                     	;# 
   730  0014                     	;# 
   731  0015                     	;# 
   732  0015                     	;# 
   733  0016                     	;# 
   734  0017                     	;# 
   735  0018                     	;# 
   736  0019                     	;# 
   737  001A                     	;# 
   738  001B                     	;# 
   739  001B                     	;# 
   740  001C                     	;# 
   741  001D                     	;# 
   742  001E                     	;# 
   743  001F                     	;# 
   744  0081                     	;# 
   745  0085                     	;# 
   746  0086                     	;# 
   747  0087                     	;# 
   748  0088                     	;# 
   749  0089                     	;# 
   750  008C                     	;# 
   751  008D                     	;# 
   752  008E                     	;# 
   753  0091                     	;# 
   754  0092                     	;# 
   755  0093                     	;# 
   756  0094                     	;# 
   757  0098                     	;# 
   758  0099                     	;# 
   759  009C                     	;# 
   760  009D                     	;# 
   761  009E                     	;# 
   762  009F                     	;# 
   763  010C                     	;# 
   764  010D                     	;# 
   765  010E                     	;# 
   766  010F                     	;# 
   767  018C                     	;# 
   768  018D                     	;# 
   769  0000                     	;# 
   770  0001                     	;# 
   771  0002                     	;# 
   772  0003                     	;# 
   773  0004                     	;# 
   774  0005                     	;# 
   775  0006                     	;# 
   776  0007                     	;# 
   777  0008                     	;# 
   778  0009                     	;# 
   779  000A                     	;# 
   780  000B                     	;# 
   781  000C                     	;# 
   782  000D                     	;# 
   783  000E                     	;# 
   784  000E                     	;# 
   785  000F                     	;# 
   786  0010                     	;# 
   787  0011                     	;# 
   788  0012                     	;# 
   789  0013                     	;# 
   790  0014                     	;# 
   791  0015                     	;# 
   792  0015                     	;# 
   793  0016                     	;# 
   794  0017                     	;# 
   795  0018                     	;# 
   796  0019                     	;# 
   797  001A                     	;# 
   798  001B                     	;# 
   799  001B                     	;# 
   800  001C                     	;# 
   801  001D                     	;# 
   802  001E                     	;# 
   803  001F                     	;# 
   804  0081                     	;# 
   805  0085                     	;# 
   806  0086                     	;# 
   807  0087                     	;# 
   808  0088                     	;# 
   809  0089                     	;# 
   810  008C                     	;# 
   811  008D                     	;# 
   812  008E                     	;# 
   813  0091                     	;# 
   814  0092                     	;# 
   815  0093                     	;# 
   816  0094                     	;# 
   817  0098                     	;# 
   818  0099                     	;# 
   819  009C                     	;# 
   820  009D                     	;# 
   821  009E                     	;# 
   822  009F                     	;# 
   823  010C                     	;# 
   824  010D                     	;# 
   825  010E                     	;# 
   826  010F                     	;# 
   827  018C                     	;# 
   828  018D                     	;# 
   829                           
   830                           	psect	idataCOMMON
   831  0800                     __pidataCOMMON:
   832                           
   833                           ;initializer for _pos
   834  0800  34FF               	retlw	255
   835  0801  34FF               	retlw	255
   836                           
   837                           	psect	idataBANK0
   838  0003                     __pidataBANK0:
   839                           
   840                           ;initializer for read_digital_keypad@once
   841  0003  3401               	retlw	1
   842                           
   843                           	psect	idataBANK1
   844  1FAE                     __pidataBANK1:
   845                           
   846                           ;initializer for main@F1017
   847  1FAE  345B               	retlw	low (STR_1| (0+32768))
   848  1FAF  3491               	retlw	high (STR_1| (0+32768))
   849  1FB0  345E               	retlw	low (STR_2| (0+32768))
   850  1FB1  3491               	retlw	high (STR_2| (0+32768))
   851  1FB2  344F               	retlw	low (STR_3| (0+32768))
   852  1FB3  3491               	retlw	high (STR_3| (0+32768))
   853  1FB4  3452               	retlw	low (STR_4| (0+32768))
   854  1FB5  3491               	retlw	high (STR_4| (0+32768))
   855  1FB6  3455               	retlw	low (STR_5| (0+32768))
   856  1FB7  3491               	retlw	high (STR_5| (0+32768))
   857  1FB8  3458               	retlw	low (STR_6| (0+32768))
   858  1FB9  3491               	retlw	high (STR_6| (0+32768))
   859                           
   860                           ;initializer for _menu
   861  1FBA  343E               	retlw	low (STR_11| (0+32768))
   862  1FBB  3491               	retlw	high (STR_11| (0+32768))
   863  1FBC  342B               	retlw	low (STR_12| (0+32768))
   864  1FBD  3491               	retlw	high (STR_12| (0+32768))
   865  1FBE  3404               	retlw	low (STR_13| (0+32768))
   866  1FBF  3491               	retlw	high (STR_13| (0+32768))
   867  1FC0  3435               	retlw	low (STR_14| (0+32768))
   868  1FC1  3491               	retlw	high (STR_14| (0+32768))
   869  1FC2  34F6               	retlw	low (STR_15| (0+32768))
   870  1FC3  3490               	retlw	high (STR_15| (0+32768))
   871                           
   872                           ;initializer for main@F1020
   873  1FC4  344F               	retlw	79
   874  1FC5  344E               	retlw	78
   875  1FC6  3400               	retlw	0
   876  0019                     _TXREG	set	25
   877  001A                     _RCREG	set	26
   878  001E                     _ADRESH	set	30
   879  0006                     _PORTB	set	6
   880  0013                     _SSPBUF	set	19
   881  0008                     _PORTD	set	8
   882  0064                     _TXIF	set	100
   883  0065                     _RCIF	set	101
   884  00C4                     _CREN	set	196
   885  00C7                     _SPEN	set	199
   886  0061                     _TMR2IF	set	97
   887  0091                     _T2CKPS1	set	145
   888  0090                     _T2CKPS0	set	144
   889  00FA                     _nDONE	set	250
   890  00FA                     _GO	set	250
   891  00F8                     _ADON	set	248
   892  0092                     _TMR2ON	set	146
   893  005E                     _PEIE	set	94
   894  005F                     _GIE	set	95
   895  00A5                     _SSPEN	set	165
   896  00A3                     _SSPM3	set	163
   897  0049                     _RE1	set	73
   898  004A                     _RE2	set	74
   899  0099                     _SPBRG	set	153
   900  0092                     _PR2	set	146
   901  009E                     _ADRESL	set	158
   902  0086                     _TRISB	set	134
   903  0091                     _SSPCON2	set	145
   904  0093                     _SSPADD	set	147
   905  0088                     _TRISD	set	136
   906  0461                     _TMR2IE	set	1121
   907  04FF                     _ADFM	set	1279
   908  048E                     _ACKSTAT	set	1166
   909  048C                     _ACKEN	set	1164
   910  048D                     _ACKDT	set	1165
   911  048B                     _RCEN	set	1163
   912  048A                     _PEN	set	1162
   913  0488                     _SEN	set	1160
   914  04A2                     _R_nW	set	1186
   915  0449                     _TRISE1	set	1097
   916  044A                     _TRISE2	set	1098
   917                           
   918                           	psect	strings
   919  1800                     __pstrings:
   920  1800                     stringtab:
   921  1800                     __stringtab:
   922                           
   923                           ;	String table - string pointers are 2 bytes each
   924  1800  1BFF               	btfsc	btemp+1,7
   925  1801  280A               	ljmp	stringcode
   926  1802  1383               	bcf	3,7
   927  1803  187F               	btfsc	btemp+1,0
   928  1804  1783               	bsf	3,7
   929  1805  0800               	movf	0,w
   930  1806  0A84               	incf	4,f
   931  1807  1903               	skipnz
   932  1808  0AFF               	incf	btemp+1,f
   933  1809  0008               	return
   934  180A                     stringcode:
   935  180A  087F               	movf	btemp+1,w
   936  180B  397F               	andlw	127
   937  180C  008A               	movwf	10
   938  180D  0804               	movf	4,w
   939  180E  0A84               	incf	4,f
   940  180F  1903               	skipnz
   941  1810  0AFF               	incf	btemp+1,f
   942  1811  0082               	movwf	2
   943  1812                     __stringbase:
   944  1812                     __end_of__stringtab:
   945                           
   946                           	psect	stringtext
   947  1000                     __pstringtext:
   948  1000                     STR_25:
   949  1000  3452               	retlw	82	;'R'
   950  1001  3445               	retlw	69	;'E'
   951  1002  342D               	retlw	45	;'-'
   952  1003  3445               	retlw	69	;'E'
   953  1004  344E               	retlw	78	;'N'
   954  1005  3454               	retlw	84	;'T'
   955  1006  3445               	retlw	69	;'E'
   956  1007  3452               	retlw	82	;'R'
   957  1008  3420               	retlw	32	;' '
   958  1009  3450               	retlw	80	;'P'
   959  100A  3441               	retlw	65	;'A'
   960  100B  3453               	retlw	83	;'S'
   961  100C  3453               	retlw	83	;'S'
   962  100D  3457               	retlw	87	;'W'
   963  100E  344F               	retlw	79	;'O'
   964  100F  3452               	retlw	82	;'R'
   965  1010  3444               	retlw	68	;'D'
   966  1011  3420               	retlw	32	;' '
   967  1012  3400               	retlw	0
   968  1013                     STR_33:
   969  1013  344E               	retlw	78	;'N'
   970  1014  3420               	retlw	32	;' '
   971  1015  3454               	retlw	84	;'T'
   972  1016  3449               	retlw	73	;'I'
   973  1017  344D               	retlw	77	;'M'
   974  1018  3445               	retlw	69	;'E'
   975  1019  3420               	retlw	32	;' '
   976  101A  3420               	retlw	32	;' '
   977  101B  3420               	retlw	32	;' '
   978  101C  3420               	retlw	32	;' '
   979  101D  3420               	retlw	32	;' '
   980  101E  3445               	retlw	69	;'E'
   981  101F  3456               	retlw	86	;'V'
   982  1020  3420               	retlw	32	;' '
   983  1021  3453               	retlw	83	;'S'
   984  1022  3450               	retlw	80	;'P'
   985  1023  340A               	retlw	10
   986  1024  3400               	retlw	0
   987  1025                     STR_29:
   988  1025  3420               	retlw	32	;' '
   989  1026  3420               	retlw	32	;' '
   990  1027  3420               	retlw	32	;' '
   991  1028  3420               	retlw	32	;' '
   992  1029  3448               	retlw	72	;'H'
   993  102A  3448               	retlw	72	;'H'
   994  102B  343A               	retlw	58	;':'
   995  102C  344D               	retlw	77	;'M'
   996  102D  344D               	retlw	77	;'M'
   997  102E  343A               	retlw	58	;':'
   998  102F  3453               	retlw	83	;'S'
   999  1030  3453               	retlw	83	;'S'
  1000  1031  3420               	retlw	32	;' '
  1001  1032  3420               	retlw	32	;' '
  1002  1033  3420               	retlw	32	;' '
  1003  1034  3420               	retlw	32	;' '
  1004  1035  3400               	retlw	0
  1005  1036                     STR_16:
  1006  1036  3420               	retlw	32	;' '
  1007  1037  3420               	retlw	32	;' '
  1008  1038  3454               	retlw	84	;'T'
  1009  1039  3449               	retlw	73	;'I'
  1010  103A  344D               	retlw	77	;'M'
  1011  103B  3445               	retlw	69	;'E'
  1012  103C  3420               	retlw	32	;' '
  1013  103D  3420               	retlw	32	;' '
  1014  103E  3420               	retlw	32	;' '
  1015  103F  3420               	retlw	32	;' '
  1016  1040  3420               	retlw	32	;' '
  1017  1041  3445               	retlw	69	;'E'
  1018  1042  3456               	retlw	86	;'V'
  1019  1043  3420               	retlw	32	;' '
  1020  1044  3453               	retlw	83	;'S'
  1021  1045  3450               	retlw	80	;'P'
  1022  1046  3400               	retlw	0
  1023  1047                     STR_23:
  1024  1047  3423               	retlw	35	;'#'
  1025  1048  3420               	retlw	32	;' '
  1026  1049  3454               	retlw	84	;'T'
  1027  104A  3449               	retlw	73	;'I'
  1028  104B  344D               	retlw	77	;'M'
  1029  104C  3445               	retlw	69	;'E'
  1030  104D  3420               	retlw	32	;' '
  1031  104E  3420               	retlw	32	;' '
  1032  104F  3420               	retlw	32	;' '
  1033  1050  3420               	retlw	32	;' '
  1034  1051  3420               	retlw	32	;' '
  1035  1052  3445               	retlw	69	;'E'
  1036  1053  3456               	retlw	86	;'V'
  1037  1054  3420               	retlw	32	;' '
  1038  1055  3453               	retlw	83	;'S'
  1039  1056  3450               	retlw	80	;'P'
  1040  1057  3400               	retlw	0
  1041  1058                     STR_26:
  1042  1058  344E               	retlw	78	;'N'
  1043  1059  3465               	retlw	101	;'e'
  1044  105A  3477               	retlw	119	;'w'
  1045  105B  3420               	retlw	32	;' '
  1046  105C  3450               	retlw	80	;'P'
  1047  105D  3461               	retlw	97	;'a'
  1048  105E  3473               	retlw	115	;'s'
  1049  105F  3473               	retlw	115	;'s'
  1050  1060  3477               	retlw	119	;'w'
  1051  1061  346F               	retlw	111	;'o'
  1052  1062  3472               	retlw	114	;'r'
  1053  1063  3464               	retlw	100	;'d'
  1054  1064  3420               	retlw	32	;' '
  1055  1065  3473               	retlw	115	;'s'
  1056  1066  3465               	retlw	101	;'e'
  1057  1067  3474               	retlw	116	;'t'
  1058  1068  3400               	retlw	0
  1059  1069                     STR_9:
  1060  1069  3420               	retlw	32	;' '
  1061  106A  3445               	retlw	69	;'E'
  1062  106B  344E               	retlw	78	;'N'
  1063  106C  3454               	retlw	84	;'T'
  1064  106D  3445               	retlw	69	;'E'
  1065  106E  3452               	retlw	82	;'R'
  1066  106F  3420               	retlw	32	;' '
  1067  1070  3450               	retlw	80	;'P'
  1068  1071  3441               	retlw	65	;'A'
  1069  1072  3453               	retlw	83	;'S'
  1070  1073  3453               	retlw	83	;'S'
  1071  1074  3457               	retlw	87	;'W'
  1072  1075  344F               	retlw	79	;'O'
  1073  1076  3452               	retlw	82	;'R'
  1074  1077  3444               	retlw	68	;'D'
  1075  1078  3420               	retlw	32	;' '
  1076  1079  3400               	retlw	0
  1077  107A                     STR_27:
  1078  107A  3420               	retlw	32	;' '
  1079  107B  3442               	retlw	66	;'B'
  1080  107C  346F               	retlw	111	;'o'
  1081  107D  3474               	retlw	116	;'t'
  1082  107E  3468               	retlw	104	;'h'
  1083  107F  3420               	retlw	32	;' '
  1084  1080  3450               	retlw	80	;'P'
  1085  1081  3461               	retlw	97	;'a'
  1086  1082  3473               	retlw	115	;'s'
  1087  1083  3473               	retlw	115	;'s'
  1088  1084  3477               	retlw	119	;'w'
  1089  1085  346F               	retlw	111	;'o'
  1090  1086  3472               	retlw	114	;'r'
  1091  1087  3464               	retlw	100	;'d'
  1092  1088  3420               	retlw	32	;' '
  1093  1089  3400               	retlw	0
  1094  108A                     STR_17:
  1095  108A  3459               	retlw	89	;'Y'
  1096  108B  346F               	retlw	111	;'o'
  1097  108C  3475               	retlw	117	;'u'
  1098  108D  3420               	retlw	32	;' '
  1099  108E  3461               	retlw	97	;'a'
  1100  108F  3472               	retlw	114	;'r'
  1101  1090  3465               	retlw	101	;'e'
  1102  1091  3420               	retlw	32	;' '
  1103  1092  3462               	retlw	98	;'b'
  1104  1093  346C               	retlw	108	;'l'
  1105  1094  346F               	retlw	111	;'o'
  1106  1095  3463               	retlw	99	;'c'
  1107  1096  346B               	retlw	107	;'k'
  1108  1097  3465               	retlw	101	;'e'
  1109  1098  3464               	retlw	100	;'d'
  1110  1099  3400               	retlw	0
  1111  109A                     STR_32:
  1112  109A  3453               	retlw	83	;'S'
  1113  109B  3465               	retlw	101	;'e'
  1114  109C  3472               	retlw	114	;'r'
  1115  109D  3469               	retlw	105	;'i'
  1116  109E  3461               	retlw	97	;'a'
  1117  109F  346C               	retlw	108	;'l'
  1118  10A0  3420               	retlw	32	;' '
  1119  10A1  3454               	retlw	84	;'T'
  1120  10A2  3465               	retlw	101	;'e'
  1121  10A3  3472               	retlw	114	;'r'
  1122  10A4  346D               	retlw	109	;'m'
  1123  10A5  3469               	retlw	105	;'i'
  1124  10A6  346E               	retlw	110	;'n'
  1125  10A7  3461               	retlw	97	;'a'
  1126  10A8  346C               	retlw	108	;'l'
  1127  10A9  3400               	retlw	0
  1128  10AA                     STR_31:
  1129  10AA  3444               	retlw	68	;'D'
  1130  10AB  346F               	retlw	111	;'o'
  1131  10AC  3477               	retlw	119	;'w'
  1132  10AD  346E               	retlw	110	;'n'
  1133  10AE  346C               	retlw	108	;'l'
  1134  10AF  346F               	retlw	111	;'o'
  1135  10B0  3461               	retlw	97	;'a'
  1136  10B1  3464               	retlw	100	;'d'
  1137  10B2  3465               	retlw	101	;'e'
  1138  10B3  3464               	retlw	100	;'d'
  1139  10B4  342D               	retlw	45	;'-'
  1140  10B5  344F               	retlw	79	;'O'
  1141  10B6  3470               	retlw	112	;'p'
  1142  10B7  3465               	retlw	101	;'e'
  1143  10B8  346E               	retlw	110	;'n'
  1144  10B9  3400               	retlw	0
  1145  10BA                     STR_18:
  1146  10BA  3477               	retlw	119	;'w'
  1147  10BB  3461               	retlw	97	;'a'
  1148  10BC  3469               	retlw	105	;'i'
  1149  10BD  3474               	retlw	116	;'t'
  1150  10BE  3420               	retlw	32	;' '
  1151  10BF  3466               	retlw	102	;'f'
  1152  10C0  346F               	retlw	111	;'o'
  1153  10C1  3472               	retlw	114	;'r'
  1154  10C2  3420               	retlw	32	;' '
  1155  10C3  3431               	retlw	49	;'1'
  1156  10C4  3435               	retlw	53	;'5'
  1157  10C5  3420               	retlw	32	;' '
  1158  10C6  346D               	retlw	109	;'m'
  1159  10C7  3469               	retlw	105	;'i'
  1160  10C8  346E               	retlw	110	;'n'
  1161  10C9  3400               	retlw	0
  1162  10CA                     STR_19:
  1163  10CA  3457               	retlw	87	;'W'
  1164  10CB  3472               	retlw	114	;'r'
  1165  10CC  346F               	retlw	111	;'o'
  1166  10CD  346E               	retlw	110	;'n'
  1167  10CE  3467               	retlw	103	;'g'
  1168  10CF  3420               	retlw	32	;' '
  1169  10D0  3450               	retlw	80	;'P'
  1170  10D1  3461               	retlw	97	;'a'
  1171  10D2  3473               	retlw	115	;'s'
  1172  10D3  3473               	retlw	115	;'s'
  1173  10D4  3477               	retlw	119	;'w'
  1174  10D5  346F               	retlw	111	;'o'
  1175  10D6  3472               	retlw	114	;'r'
  1176  10D7  3464               	retlw	100	;'d'
  1177  10D8  3400               	retlw	0
  1178  10D9                     STR_20:
  1179  10D9  3461               	retlw	97	;'a'
  1180  10DA  3474               	retlw	116	;'t'
  1181  10DB  3474               	retlw	116	;'t'
  1182  10DC  3465               	retlw	101	;'e'
  1183  10DD  346D               	retlw	109	;'m'
  1184  10DE  3470               	retlw	112	;'p'
  1185  10DF  3474               	retlw	116	;'t'
  1186  10E0  3420               	retlw	32	;' '
  1187  10E1  3472               	retlw	114	;'r'
  1188  10E2  3465               	retlw	101	;'e'
  1189  10E3  346D               	retlw	109	;'m'
  1190  10E4  3461               	retlw	97	;'a'
  1191  10E5  3469               	retlw	105	;'i'
  1192  10E6  346E               	retlw	110	;'n'
  1193  10E7  3400               	retlw	0
  1194  10E8                     STR_28:
  1195  10E8  3420               	retlw	32	;' '
  1196  10E9  3420               	retlw	32	;' '
  1197  10EA  344E               	retlw	78	;'N'
  1198  10EB  346F               	retlw	111	;'o'
  1199  10EC  3474               	retlw	116	;'t'
  1200  10ED  3420               	retlw	32	;' '
  1201  10EE  344D               	retlw	77	;'M'
  1202  10EF  3461               	retlw	97	;'a'
  1203  10F0  3474               	retlw	116	;'t'
  1204  10F1  3463               	retlw	99	;'c'
  1205  10F2  3468               	retlw	104	;'h'
  1206  10F3  3465               	retlw	101	;'e'
  1207  10F4  3464               	retlw	100	;'d'
  1208  10F5  3400               	retlw	0
  1209  10F6                     STR_15:
  1210  10F6  3443               	retlw	67	;'C'
  1211  10F7  3468               	retlw	104	;'h'
  1212  10F8  3461               	retlw	97	;'a'
  1213  10F9  346E               	retlw	110	;'n'
  1214  10FA  3467               	retlw	103	;'g'
  1215  10FB  3465               	retlw	101	;'e'
  1216  10FC  3420               	retlw	32	;' '
  1217  10FD  3470               	retlw	112	;'p'
  1218  10FE  3461               	retlw	97	;'a'
  1219  10FF  3473               	retlw	115	;'s'
  1220  1100  3473               	retlw	115	;'s'
  1221  1101  3477               	retlw	119	;'w'
  1222  1102  3464               	retlw	100	;'d'
  1223  1103  3400               	retlw	0
  1224  1104                     STR_13:
  1225  1104  3444               	retlw	68	;'D'
  1226  1105  346F               	retlw	111	;'o'
  1227  1106  3477               	retlw	119	;'w'
  1228  1107  346E               	retlw	110	;'n'
  1229  1108  346C               	retlw	108	;'l'
  1230  1109  346F               	retlw	111	;'o'
  1231  110A  3461               	retlw	97	;'a'
  1232  110B  3464               	retlw	100	;'d'
  1233  110C  3420               	retlw	32	;' '
  1234  110D  346C               	retlw	108	;'l'
  1235  110E  346F               	retlw	111	;'o'
  1236  110F  3467               	retlw	103	;'g'
  1237  1110  3400               	retlw	0
  1238  1111                     STR_22:
  1239  1111  344E               	retlw	78	;'N'
  1240  1112  346F               	retlw	111	;'o'
  1241  1113  3420               	retlw	32	;' '
  1242  1114  344C               	retlw	76	;'L'
  1243  1115  346F               	retlw	111	;'o'
  1244  1116  3467               	retlw	103	;'g'
  1245  1117  3420               	retlw	32	;' '
  1246  1118  3445               	retlw	69	;'E'
  1247  1119  3478               	retlw	120	;'x'
  1248  111A  3469               	retlw	105	;'i'
  1249  111B  3473               	retlw	115	;'s'
  1250  111C  3474               	retlw	116	;'t'
  1251  111D  3400               	retlw	0
  1252  111E                     STR_10:
  1253  111E  344C               	retlw	76	;'L'
  1254  111F  346F               	retlw	111	;'o'
  1255  1120  3467               	retlw	103	;'g'
  1256  1121  3473               	retlw	115	;'s'
  1257  1122  3420               	retlw	32	;' '
  1258  1123  3443               	retlw	67	;'C'
  1259  1124  346C               	retlw	108	;'l'
  1260  1125  3465               	retlw	101	;'e'
  1261  1126  3461               	retlw	97	;'a'
  1262  1127  3472               	retlw	114	;'r'
  1263  1128  3465               	retlw	101	;'e'
  1264  1129  3464               	retlw	100	;'d'
  1265  112A  3400               	retlw	0
  1266  112B                     STR_12:
  1267  112B  3443               	retlw	67	;'C'
  1268  112C  346C               	retlw	108	;'l'
  1269  112D  3465               	retlw	101	;'e'
  1270  112E  3461               	retlw	97	;'a'
  1271  112F  3472               	retlw	114	;'r'
  1272  1130  3420               	retlw	32	;' '
  1273  1131  346C               	retlw	108	;'l'
  1274  1132  346F               	retlw	111	;'o'
  1275  1133  3467               	retlw	103	;'g'
  1276  1134  3400               	retlw	0
  1277  1135                     STR_14:
  1278  1135  3453               	retlw	83	;'S'
  1279  1136  3465               	retlw	101	;'e'
  1280  1137  3474               	retlw	116	;'t'
  1281  1138  3420               	retlw	32	;' '
  1282  1139  3474               	retlw	116	;'t'
  1283  113A  3469               	retlw	105	;'i'
  1284  113B  346D               	retlw	109	;'m'
  1285  113C  3465               	retlw	101	;'e'
  1286  113D  3400               	retlw	0
  1287  113E                     STR_11:
  1288  113E  3456               	retlw	86	;'V'
  1289  113F  3469               	retlw	105	;'i'
  1290  1140  3465               	retlw	101	;'e'
  1291  1141  3477               	retlw	119	;'w'
  1292  1142  3420               	retlw	32	;' '
  1293  1143  346C               	retlw	108	;'l'
  1294  1144  346F               	retlw	111	;'o'
  1295  1145  3467               	retlw	103	;'g'
  1296  1146  3400               	retlw	0
  1297  1147                     STR_7:
  1298  1147  3431               	retlw	49	;'1'
  1299  1148  3430               	retlw	48	;'0'
  1300  1149  3431               	retlw	49	;'1'
  1301  114A  3430               	retlw	48	;'0'
  1302  114B  3400               	retlw	0
  1303  114C                     STR_8:
  1304  114C  3443               	retlw	67	;'C'
  1305  114D  3420               	retlw	32	;' '
  1306  114E  3400               	retlw	0
  1307  114F                     STR_3:
  1308  114F  3447               	retlw	71	;'G'
  1309  1150  3431               	retlw	49	;'1'
  1310  1151  3400               	retlw	0
  1311  1152                     STR_4:
  1312  1152  3447               	retlw	71	;'G'
  1313  1153  3432               	retlw	50	;'2'
  1314  1154  3400               	retlw	0
  1315  1155                     STR_5:
  1316  1155  3447               	retlw	71	;'G'
  1317  1156  3433               	retlw	51	;'3'
  1318  1157  3400               	retlw	0
  1319  1158                     STR_6:
  1320  1158  3447               	retlw	71	;'G'
  1321  1159  3434               	retlw	52	;'4'
  1322  115A  3400               	retlw	0
  1323  115B                     STR_1:
  1324  115B  3447               	retlw	71	;'G'
  1325  115C  344E               	retlw	78	;'N'
  1326  115D  3400               	retlw	0
  1327  115E                     STR_2:
  1328  115E  3447               	retlw	71	;'G'
  1329  115F  3452               	retlw	82	;'R'
  1330  1160  3400               	retlw	0
  1331  1069                     
  1332                           	psect	cinit
  1333  0013                     start_initialization:	
  1334                           ; #config settings
  1335                           
  1336  0013                     __initialization:
  1337                           
  1338                           ; Initialize objects allocated to BANK1
  1339  0013  1383               	bcf	3,7	;select IRP bank0
  1340  0014  30E2               	movlw	low (__pdataBANK1+25)
  1341  0015  00FD               	movwf	btemp+-1
  1342  0016  301F               	movlw	high __pidataBANK1
  1343  0017  00FE               	movwf	btemp
  1344  0018  30AE               	movlw	low __pidataBANK1
  1345  0019  00FF               	movwf	btemp+1
  1346  001A  30C9               	movlw	low __pdataBANK1
  1347  001B  0084               	movwf	4
  1348  001C  160A  158A  275F  120A  118A  	fcall	init_ram0
  1349                           
  1350                           ; Initialize objects allocated to BANK0
  1351  0021  120A  118A  2003  120A  118A  	fcall	__pidataBANK0	;fetch initializer
  1352  0026  00D3               	movwf	__pdataBANK0& (0+127)
  1353                           
  1354                           ; Initialize objects allocated to COMMON
  1355  0027  120A  158A  2000  120A  118A  	fcall	__pidataCOMMON	;fetch initializer
  1356  002C  00F7               	movwf	__pdataCOMMON& (0+127)
  1357  002D  120A  158A  2001  120A  118A  	fcall	__pidataCOMMON+1	;fetch initializer
  1358  0032  00F8               	movwf	(__pdataCOMMON+1)& (0+127)
  1359                           
  1360                           ; Clear objects allocated to BANK1
  1361  0033  30A0               	movlw	low __pbssBANK1
  1362  0034  0084               	movwf	4
  1363  0035  30C9               	movlw	low (__pbssBANK1+41)
  1364  0036  160A  158A  2704  120A  118A  	fcall	clear_ram0
  1365                           
  1366                           ; Clear objects allocated to BANK0
  1367  003B  303E               	movlw	low __pbssBANK0
  1368  003C  0084               	movwf	4
  1369  003D  3053               	movlw	low (__pbssBANK0+21)
  1370  003E  160A  158A  2704  120A  118A  	fcall	clear_ram0
  1371                           
  1372                           ; Clear objects allocated to COMMON
  1373  0043  01F9               	clrf	__pbssCOMMON& (0+127)
  1374  0044                     end_of_initialization:	
  1375                           ;End of C runtime variable initialization code
  1376                           
  1377  0044                     __end_of__initialization:
  1378  0044  0183               	clrf	3
  1379  0045  120A  118A  2848   	ljmp	_main	;jump to C main() function
  1380                           
  1381                           	psect	bssCOMMON
  1382  0079                     __pbssCOMMON:
  1383  0079                     _access:
  1384  0079                     	ds	1
  1385                           
  1386                           	psect	dataCOMMON
  1387  0077                     __pdataCOMMON:
  1388  0077                     _pos:
  1389  0077                     	ds	2
  1390                           
  1391                           	psect	bssBANK0
  1392  003E                     __pbssBANK0:
  1393  003E                     _clock_reg:
  1394  003E                     	ds	3
  1395  0041                     download_log@log_pos:
  1396  0041                     	ds	1
  1397  0042                     set_time@flag:
  1398  0042                     	ds	1
  1399  0043                     set_time@delay:
  1400  0043                     	ds	1
  1401  0044                     set_time@hour_flag:
  1402  0044                     	ds	1
  1403  0045                     set_time@minute_flag:
  1404  0045                     	ds	1
  1405  0046                     set_time@second_flag:
  1406  0046                     	ds	1
  1407  0047                     change_password@flag:
  1408  0047                     	ds	1
  1409  0048                     change_password@j:
  1410  0048                     	ds	1
  1411  0049                     change_password@i:
  1412  0049                     	ds	1
  1413  004A                     view_log@log_pos:
  1414  004A                     	ds	1
  1415  004B                     login_menu@menu_pos:
  1416  004B                     	ds	1
  1417  004C                     login@i:
  1418  004C                     	ds	1
  1419  004D                     login@attempt_rem:
  1420  004D                     	ds	1
  1421  004E                     _min:
  1422  004E                     	ds	1
  1423  004F                     _sec:
  1424  004F                     	ds	1
  1425  0050                     _hour:
  1426  0050                     	ds	1
  1427  0051                     _minute:
  1428  0051                     	ds	1
  1429  0052                     _second:
  1430  0052                     	ds	1
  1431                           
  1432                           	psect	dataBANK0
  1433  0053                     __pdataBANK0:
  1434  0053                     read_digital_keypad@once:
  1435  0053                     	ds	1
  1436                           
  1437                           	psect	bssBANK1
  1438  00A0                     __pbssBANK1:
  1439  00A0                     set_time@new_time:
  1440  00A0                     	ds	7
  1441  00A7                     isr@count:
  1442  00A7                     	ds	2
  1443  00A9                     _return_time:
  1444  00A9                     	ds	2
  1445  00AB                     _log:
  1446  00AB                     	ds	11
  1447  00B6                     _time:
  1448  00B6                     	ds	7
  1449  00BD                     change_password@re_npasswd:
  1450  00BD                     	ds	4
  1451  00C1                     change_password@npasswd:
  1452  00C1                     	ds	4
  1453  00C5                     login@npasswd:
  1454  00C5                     	ds	4
  1455                           
  1456                           	psect	dataBANK1
  1457  00C9                     __pdataBANK1:
  1458  00C9                     main@F1017:
  1459  00C9                     	ds	12
  1460  00D5                     _menu:
  1461  00D5                     	ds	10
  1462  00DF                     main@F1020:
  1463  00DF                     	ds	3
  1464                           
  1465                           	psect	inittext
  1466  1F5B                     init_fetch0:	
  1467                           ;	Called with low address in FSR and high address in W
  1468                           
  1469  1F5B  087E               	movf	btemp,w
  1470  1F5C  008A               	movwf	10
  1471  1F5D  087F               	movf	btemp+1,w
  1472  1F5E  0082               	movwf	2
  1473  1F5F                     init_ram0:	
  1474                           ;Called with:
  1475                           ;	high address of idata address in btemp 
  1476                           ;	low address of idata address in btemp+1 
  1477                           ;	low address of data in FSR
  1478                           ;	high address + 1 of data in btemp-1
  1479                           
  1480  1F5F  160A  158A  275B  160A  158A  	fcall	init_fetch0
  1481  1F64  0080               	movwf	0
  1482  1F65  0A84               	incf	4,f
  1483  1F66  0804               	movf	4,w
  1484  1F67  067D               	xorwf	btemp+-1,w
  1485  1F68  1903               	btfsc	3,2
  1486  1F69  3400               	retlw	0
  1487  1F6A  0AFF               	incf	btemp+1,f
  1488  1F6B  1903               	btfsc	3,2
  1489  1F6C  0AFE               	incf	btemp,f
  1490  1F6D  2F5F               	goto	init_ram0
  1491                           
  1492                           	psect	clrtext
  1493  1F04                     clear_ram0:	
  1494                           ;	Called with FSR containing the base address, and
  1495                           ;	W with the last address+1
  1496                           
  1497  1F04  0064               	clrwdt	;clear the watchdog before getting into this loop
  1498  1F05                     clrloop0:
  1499  1F05  0180               	clrf	0	;clear RAM location pointed to by FSR
  1500  1F06  0A84               	incf	4,f	;increment pointer
  1501  1F07  0604               	xorwf	4,w	;XOR with final address
  1502  1F08  1903               	btfsc	3,2	;have we reached the end yet?
  1503  1F09  3400               	retlw	0	;all done for this memory range, return
  1504  1F0A  0604               	xorwf	4,w	;XOR again to restore value
  1505  1F0B  2F05               	goto	clrloop0	;do the next byte
  1506                           
  1507                           	psect	cstackBANK3
  1508  0190                     __pcstackBANK3:
  1509  0190                     main@gear:
  1510                           
  1511                           ; 12 bytes @ 0x0
  1512  0190                     	ds	12
  1513  019C                     main@delay1:
  1514                           
  1515                           ; 2 bytes @ 0xC
  1516  019C                     	ds	2
  1517  019E                     main@delay2:
  1518                           
  1519                           ; 2 bytes @ 0xE
  1520  019E                     	ds	2
  1521  01A0                     main@delay3:
  1522                           
  1523                           ; 2 bytes @ 0x10
  1524  01A0                     	ds	2
  1525  01A2                     main@delay4:
  1526                           
  1527                           ; 2 bytes @ 0x12
  1528  01A2                     	ds	2
  1529  01A4                     main@delay5:
  1530                           
  1531                           ; 2 bytes @ 0x14
  1532  01A4                     	ds	2
  1533  01A6                     main@menu_pos:
  1534                           
  1535                           ; 1 bytes @ 0x16
  1536  01A6                     	ds	1
  1537  01A7                     main@event:
  1538                           
  1539                           ; 3 bytes @ 0x17
  1540  01A7                     	ds	3
  1541  01AA                     main@gr:
  1542                           
  1543                           ; 2 bytes @ 0x1A
  1544  01AA                     	ds	2
  1545  01AC                     main@key_level:
  1546                           
  1547                           ; 1 bytes @ 0x1C
  1548  01AC                     	ds	1
  1549  01AD                     main@speed:
  1550                           
  1551                           ; 1 bytes @ 0x1D
  1552  01AD                     	ds	1
  1553  01AE                     main@reset_flag:
  1554                           
  1555                           ; 1 bytes @ 0x1E
  1556  01AE                     	ds	1
  1557  01AF                     main@key:
  1558                           
  1559                           ; 1 bytes @ 0x1F
  1560  01AF                     	ds	1
  1561  01B0                     main@control_flag:
  1562                           
  1563                           ; 1 bytes @ 0x20
  1564  01B0                     	ds	1
  1565                           
  1566                           	psect	cstackCOMMON
  1567  0070                     __pcstackCOMMON:
  1568  0070                     ?_read_ds1307:
  1569  0070                     ?_i2c_start:	
  1570                           ; 1 bytes @ 0x0
  1571                           
  1572  0070                     ?_i2c_rep_start:	
  1573                           ; 1 bytes @ 0x0
  1574                           
  1575  0070                     ?_i2c_read:	
  1576                           ; 1 bytes @ 0x0
  1577                           
  1578  0070                     ?_i2c_stop:	
  1579                           ; 1 bytes @ 0x0
  1580                           
  1581  0070                     ?_init_digital_keypad:	
  1582                           ; 1 bytes @ 0x0
  1583                           
  1584  0070                     ?_init_adc:	
  1585                           ; 1 bytes @ 0x0
  1586                           
  1587  0070                     ?_init_timer2:	
  1588                           ; 1 bytes @ 0x0
  1589                           
  1590  0070                     ?_read_digital_keypad:	
  1591                           ; 1 bytes @ 0x0
  1592                           
  1593  0070                     ?_clear_screen:	
  1594                           ; 1 bytes @ 0x0
  1595                           
  1596  0070                     ?_dec2bcd:	
  1597                           ; 1 bytes @ 0x0
  1598                           
  1599  0070                     ?_download_log:	
  1600                           ; 1 bytes @ 0x0
  1601                           
  1602  0070                     ?_putchar:	
  1603                           ; 1 bytes @ 0x0
  1604                           
  1605  0070                     ?_init_display_controller:	
  1606                           ; 1 bytes @ 0x0
  1607                           
  1608  0070                     ?_init_clcd:	
  1609                           ; 1 bytes @ 0x0
  1610                           
  1611  0070                     ?_init_ds1307:	
  1612                           ; 1 bytes @ 0x0
  1613                           
  1614  0070                     ?_i2c_wait_for_idle:	
  1615                           ; 1 bytes @ 0x0
  1616                           
  1617  0070                     ?_init_config:	
  1618                           ; 1 bytes @ 0x0
  1619                           
  1620  0070                     ?_main:	
  1621                           ; 1 bytes @ 0x0
  1622                           
  1623  0070                     ?_read_EEPROM:	
  1624                           ; 1 bytes @ 0x0
  1625                           
  1626  0070                     ?_get_time:	
  1627                           ; 1 bytes @ 0x0
  1628                           
  1629  0070                     ?_display_time:	
  1630                           ; 1 bytes @ 0x0
  1631                           
  1632  0070                     ?_log_car_event:	
  1633                           ; 1 bytes @ 0x0
  1634                           
  1635  0070                     ?_isr:	
  1636                           ; 1 bytes @ 0x0
  1637                           
  1638  0070                     ??_isr:	
  1639                           ; 1 bytes @ 0x0
  1640                           
  1641  0070                     ?_i2c_write:	
  1642                           ; 1 bytes @ 0x0
  1643                           
  1644                           
  1645                           ; 2 bytes @ 0x0
  1646  0070                     	ds	4
  1647  0074                     ??_i2c_start:
  1648  0074                     ??_i2c_write:	
  1649                           ; 1 bytes @ 0x4
  1650                           
  1651  0074                     ??_i2c_rep_start:	
  1652                           ; 1 bytes @ 0x4
  1653                           
  1654  0074                     ??_i2c_read:	
  1655                           ; 1 bytes @ 0x4
  1656                           
  1657  0074                     ??_i2c_stop:	
  1658                           ; 1 bytes @ 0x4
  1659                           
  1660  0074                     ??_init_digital_keypad:	
  1661                           ; 1 bytes @ 0x4
  1662                           
  1663  0074                     ??_init_adc:	
  1664                           ; 1 bytes @ 0x4
  1665                           
  1666  0074                     ??_init_timer2:	
  1667                           ; 1 bytes @ 0x4
  1668                           
  1669  0074                     ??_read_digital_keypad:	
  1670                           ; 1 bytes @ 0x4
  1671                           
  1672  0074                     ?_strcpy:	
  1673                           ; 1 bytes @ 0x4
  1674                           
  1675  0074                     ??_strncpy:	
  1676                           ; 1 bytes @ 0x4
  1677                           
  1678  0074                     ??_putchar:	
  1679                           ; 1 bytes @ 0x4
  1680                           
  1681  0074                     ?_clcd_write:	
  1682                           ; 1 bytes @ 0x4
  1683                           
  1684  0074                     ??_i2c_wait_for_idle:	
  1685                           ; 1 bytes @ 0x4
  1686                           
  1687  0074                     ?___bmul:	
  1688                           ; 1 bytes @ 0x4
  1689                           
  1690  0074                     ??___lldiv:	
  1691                           ; 1 bytes @ 0x4
  1692                           
  1693  0074                     ??___awdiv:	
  1694                           ; 1 bytes @ 0x4
  1695                           
  1696  0074                     ?_read_adc:	
  1697                           ; 1 bytes @ 0x4
  1698                           
  1699  0074                     ?_strncmp:	
  1700                           ; 2 bytes @ 0x4
  1701                           
  1702  0074                     clcd_write@mode:	
  1703                           ; 2 bytes @ 0x4
  1704                           
  1705  0074                     i2c_write@data:	
  1706                           ; 1 bytes @ 0x4
  1707                           
  1708  0074                     putchar@data:	
  1709                           ; 1 bytes @ 0x4
  1710                           
  1711  0074                     ___bmul@multiplicand:	
  1712                           ; 1 bytes @ 0x4
  1713                           
  1714  0074                     strncmp@s2:	
  1715                           ; 1 bytes @ 0x4
  1716                           
  1717  0074                     strcpy@from:	
  1718                           ; 1 bytes @ 0x4
  1719                           
  1720                           
  1721                           ; 2 bytes @ 0x4
  1722  0074                     	ds	1
  1723  0075                     ?_puts:
  1724  0075                     ??_clcd_write:	
  1725                           ; 1 bytes @ 0x5
  1726                           
  1727  0075                     ?_byte_write_EEPROM:	
  1728                           ; 1 bytes @ 0x5
  1729                           
  1730  0075                     ??___bmul:	
  1731                           ; 1 bytes @ 0x5
  1732                           
  1733  0075                     ??___awmod:	
  1734                           ; 1 bytes @ 0x5
  1735                           
  1736  0075                     i2c_read@ack:	
  1737                           ; 1 bytes @ 0x5
  1738                           
  1739  0075                     read_digital_keypad@mode:	
  1740                           ; 1 bytes @ 0x5
  1741                           
  1742  0075                     byte_write_EEPROM@data:	
  1743                           ; 1 bytes @ 0x5
  1744                           
  1745  0075                     puts@s:	
  1746                           ; 1 bytes @ 0x5
  1747                           
  1748  0075                     strncmp@len:	
  1749                           ; 2 bytes @ 0x5
  1750                           
  1751                           
  1752                           ; 2 bytes @ 0x5
  1753  0075                     	ds	1
  1754  0076                     ??_write_ds1307:
  1755  0076                     ??_strcpy:	
  1756                           ; 1 bytes @ 0x6
  1757                           
  1758  0076                     ??_read_adc:	
  1759                           ; 1 bytes @ 0x6
  1760                           
  1761  0076                     ??_byte_write_EEPROM:	
  1762                           ; 1 bytes @ 0x6
  1763                           
  1764  0076                     ??___lwdiv:	
  1765                           ; 1 bytes @ 0x6
  1766                           
  1767  0076                     write_ds1307@addr:	
  1768                           ; 1 bytes @ 0x6
  1769                           
  1770  0076                     i2c_read@data:	
  1771                           ; 1 bytes @ 0x6
  1772                           
  1773  0076                     byte_write_EEPROM@addr:	
  1774                           ; 1 bytes @ 0x6
  1775                           
  1776                           
  1777                           ; 1 bytes @ 0x6
  1778  0076                     	ds	1
  1779  0077                     ??_puts:
  1780  0077                     ??_init_clcd:	
  1781                           ; 1 bytes @ 0x7
  1782                           
  1783  0077                     ??_clcd_putch:	
  1784                           ; 1 bytes @ 0x7
  1785                           
  1786  0077                     ??_clcd_print:	
  1787                           ; 1 bytes @ 0x7
  1788                           
  1789  0077                     ??_init_config:	
  1790                           ; 1 bytes @ 0x7
  1791                           
  1792                           
  1793                           	psect	cstackBANK0
  1794  0020                     __pcstackBANK0:	
  1795                           ; 1 bytes @ 0x7
  1796                           
  1797  0020                     ??_read_ds1307:
  1798  0020                     ?_str_write_EEPROM:	
  1799                           ; 1 bytes @ 0x0
  1800                           
  1801  0020                     ?_strncpy:	
  1802                           ; 1 bytes @ 0x0
  1803                           
  1804  0020                     ??_strncmp:	
  1805                           ; 1 bytes @ 0x0
  1806                           
  1807  0020                     ??_read_EEPROM:	
  1808                           ; 1 bytes @ 0x0
  1809                           
  1810  0020                     ?___awdiv:	
  1811                           ; 1 bytes @ 0x0
  1812                           
  1813  0020                     ?___lldiv:	
  1814                           ; 2 bytes @ 0x0
  1815                           
  1816  0020                     clcd_write@byte:	
  1817                           ; 4 bytes @ 0x0
  1818                           
  1819  0020                     ___bmul@product:	
  1820                           ; 1 bytes @ 0x0
  1821                           
  1822  0020                     strcpy@cp:	
  1823                           ; 1 bytes @ 0x0
  1824                           
  1825  0020                     str_write_EEPROM@data:	
  1826                           ; 1 bytes @ 0x0
  1827                           
  1828  0020                     read_adc@adc_reg_val:	
  1829                           ; 2 bytes @ 0x0
  1830                           
  1831  0020                     ___awdiv@divisor:	
  1832                           ; 2 bytes @ 0x0
  1833                           
  1834  0020                     strncpy@from:	
  1835                           ; 2 bytes @ 0x0
  1836                           
  1837  0020                     ___lldiv@divisor:	
  1838                           ; 2 bytes @ 0x0
  1839                           
  1840                           
  1841                           ; 4 bytes @ 0x0
  1842  0020                     	ds	1
  1843  0021                     ??_clear_screen:
  1844  0021                     ??_init_display_controller:	
  1845                           ; 1 bytes @ 0x1
  1846                           
  1847  0021                     ?_clcd_print:	
  1848                           ; 1 bytes @ 0x1
  1849                           
  1850  0021                     read_ds1307@addr:	
  1851                           ; 1 bytes @ 0x1
  1852                           
  1853  0021                     read_EEPROM@addr:	
  1854                           ; 1 bytes @ 0x1
  1855                           
  1856  0021                     ___bmul@multiplier:	
  1857                           ; 1 bytes @ 0x1
  1858                           
  1859  0021                     strcpy@to:	
  1860                           ; 1 bytes @ 0x1
  1861                           
  1862  0021                     clcd_print@str:	
  1863                           ; 1 bytes @ 0x1
  1864                           
  1865                           
  1866                           ; 2 bytes @ 0x1
  1867  0021                     	ds	1
  1868  0022                     ??_str_write_EEPROM:
  1869  0022                     ?___lwdiv:	
  1870                           ; 1 bytes @ 0x2
  1871                           
  1872  0022                     read_ds1307@data:	
  1873                           ; 2 bytes @ 0x2
  1874                           
  1875  0022                     read_EEPROM@data:	
  1876                           ; 1 bytes @ 0x2
  1877                           
  1878  0022                     strncmp@s1:	
  1879                           ; 1 bytes @ 0x2
  1880                           
  1881  0022                     ___awdiv@dividend:	
  1882                           ; 1 bytes @ 0x2
  1883                           
  1884  0022                     ___lwdiv@divisor:	
  1885                           ; 2 bytes @ 0x2
  1886                           
  1887  0022                     strncpy@size:	
  1888                           ; 2 bytes @ 0x2
  1889                           
  1890                           
  1891                           ; 2 bytes @ 0x2
  1892  0022                     	ds	1
  1893  0023                     ??_get_time:
  1894  0023                     clcd_print@addr:	
  1895                           ; 1 bytes @ 0x3
  1896                           
  1897  0023                     str_write_EEPROM@addr:	
  1898                           ; 1 bytes @ 0x3
  1899                           
  1900                           
  1901                           ; 1 bytes @ 0x3
  1902  0023                     	ds	1
  1903  0024                     ??_download_log:
  1904  0024                     ??_log_car_event:	
  1905                           ; 1 bytes @ 0x4
  1906                           
  1907  0024                     ___awdiv@counter:	
  1908                           ; 1 bytes @ 0x4
  1909                           
  1910  0024                     strncpy@to:	
  1911                           ; 1 bytes @ 0x4
  1912                           
  1913  0024                     ___lwdiv@dividend:	
  1914                           ; 1 bytes @ 0x4
  1915                           
  1916  0024                     ___lldiv@dividend:	
  1917                           ; 2 bytes @ 0x4
  1918                           
  1919                           
  1920                           ; 4 bytes @ 0x4
  1921  0024                     	ds	1
  1922  0025                     ___awdiv@sign:
  1923  0025                     strncpy@cp:	
  1924                           ; 1 bytes @ 0x5
  1925                           
  1926                           
  1927                           ; 1 bytes @ 0x5
  1928  0025                     	ds	1
  1929  0026                     log_car_event@addr:
  1930  0026                     ___lwdiv@counter:	
  1931                           ; 1 bytes @ 0x6
  1932                           
  1933  0026                     ___awdiv@quotient:	
  1934                           ; 1 bytes @ 0x6
  1935                           
  1936                           
  1937                           ; 2 bytes @ 0x6
  1938  0026                     	ds	1
  1939  0027                     download_log@reset_flag:
  1940  0027                     ___lwdiv@quotient:	
  1941                           ; 1 bytes @ 0x7
  1942                           
  1943                           
  1944                           ; 2 bytes @ 0x7
  1945  0027                     	ds	1
  1946  0028                     ?___awmod:
  1947  0028                     download_log@i:	
  1948                           ; 2 bytes @ 0x8
  1949                           
  1950  0028                     ___awmod@divisor:	
  1951                           ; 1 bytes @ 0x8
  1952                           
  1953  0028                     ___lldiv@quotient:	
  1954                           ; 2 bytes @ 0x8
  1955                           
  1956                           
  1957                           ; 4 bytes @ 0x8
  1958  0028                     	ds	1
  1959  0029                     download_log@ch:
  1960                           
  1961                           ; 1 bytes @ 0x9
  1962  0029                     	ds	1
  1963  002A                     ___awmod@dividend:
  1964                           
  1965                           ; 2 bytes @ 0xA
  1966  002A                     	ds	2
  1967  002C                     ___lldiv@counter:
  1968  002C                     ___awmod@counter:	
  1969                           ; 1 bytes @ 0xC
  1970                           
  1971                           
  1972                           ; 1 bytes @ 0xC
  1973  002C                     	ds	1
  1974  002D                     ?_init_uart:
  1975  002D                     ?_init_i2c:	
  1976                           ; 1 bytes @ 0xD
  1977                           
  1978  002D                     ___awmod@sign:	
  1979                           ; 1 bytes @ 0xD
  1980                           
  1981  002D                     init_i2c@baud:	
  1982                           ; 1 bytes @ 0xD
  1983                           
  1984  002D                     init_uart@baud:	
  1985                           ; 4 bytes @ 0xD
  1986                           
  1987                           
  1988                           ; 4 bytes @ 0xD
  1989  002D                     	ds	1
  1990  002E                     ?_log_event:
  1991  002E                     ??_dec2bcd:	
  1992                           ; 1 bytes @ 0xE
  1993                           
  1994  002E                     ?_clcd_putch:	
  1995                           ; 1 bytes @ 0xE
  1996                           
  1997  002E                     clcd_putch@addr:	
  1998                           ; 1 bytes @ 0xE
  1999                           
  2000  002E                     log_event@speed:	
  2001                           ; 1 bytes @ 0xE
  2002                           
  2003                           
  2004                           ; 1 bytes @ 0xE
  2005  002E                     	ds	1
  2006  002F                     ??_log_event:
  2007  002F                     clcd_putch@data:	
  2008                           ; 1 bytes @ 0xF
  2009                           
  2010                           
  2011                           ; 1 bytes @ 0xF
  2012  002F                     	ds	1
  2013  0030                     ?_login:
  2014  0030                     ?_login_menu:	
  2015                           ; 1 bytes @ 0x10
  2016                           
  2017  0030                     ?_view_log:	
  2018                           ; 1 bytes @ 0x10
  2019                           
  2020  0030                     ?_set_time:	
  2021                           ; 1 bytes @ 0x10
  2022                           
  2023  0030                     ?_change_password:	
  2024                           ; 1 bytes @ 0x10
  2025                           
  2026  0030                     ??_display_time:	
  2027                           ; 1 bytes @ 0x10
  2028                           
  2029  0030                     login@key:	
  2030                           ; 1 bytes @ 0x10
  2031                           
  2032  0030                     login_menu@key:	
  2033                           ; 1 bytes @ 0x10
  2034                           
  2035  0030                     view_log@key:	
  2036                           ; 1 bytes @ 0x10
  2037                           
  2038  0030                     change_password@key:	
  2039                           ; 1 bytes @ 0x10
  2040                           
  2041  0030                     set_time@key:	
  2042                           ; 1 bytes @ 0x10
  2043                           
  2044                           
  2045                           ; 1 bytes @ 0x10
  2046  0030                     	ds	1
  2047  0031                     ??_init_uart:
  2048  0031                     ??_login:	
  2049                           ; 1 bytes @ 0x11
  2050                           
  2051  0031                     ??_login_menu:	
  2052                           ; 1 bytes @ 0x11
  2053                           
  2054  0031                     ??_view_log:	
  2055                           ; 1 bytes @ 0x11
  2056                           
  2057  0031                     ??_set_time:	
  2058                           ; 1 bytes @ 0x11
  2059                           
  2060  0031                     ??_change_password:	
  2061                           ; 1 bytes @ 0x11
  2062                           
  2063  0031                     ??_init_i2c:	
  2064                           ; 1 bytes @ 0x11
  2065                           
  2066  0031                     dec2bcd@ones:	
  2067                           ; 1 bytes @ 0x11
  2068                           
  2069                           
  2070                           ; 1 bytes @ 0x11
  2071  0031                     	ds	1
  2072  0032                     ?_display_dash_screen:
  2073  0032                     display_dash_screen@speed:	
  2074                           ; 1 bytes @ 0x12
  2075                           
  2076  0032                     log_event@event:	
  2077                           ; 1 bytes @ 0x12
  2078                           
  2079  0032                     dec2bcd@tens:	
  2080                           ; 1 bytes @ 0x12
  2081                           
  2082                           
  2083                           ; 1 bytes @ 0x12
  2084  0032                     	ds	1
  2085  0033                     ??_display_dash_screen:
  2086  0033                     view_log@reset_flag:	
  2087                           ; 1 bytes @ 0x13
  2088                           
  2089  0033                     dec2bcd@temp:	
  2090                           ; 1 bytes @ 0x13
  2091                           
  2092                           
  2093                           ; 1 bytes @ 0x13
  2094  0033                     	ds	1
  2095  0034                     login_menu@reset_flag:
  2096  0034                     view_log@i:	
  2097                           ; 1 bytes @ 0x14
  2098                           
  2099  0034                     change_password@reset_flag:	
  2100                           ; 1 bytes @ 0x14
  2101                           
  2102  0034                     set_time@reset_flag:	
  2103                           ; 1 bytes @ 0x14
  2104                           
  2105  0034                     dec2bcd@num:	
  2106                           ; 1 bytes @ 0x14
  2107                           
  2108  0034                     login@spasswd:	
  2109                           ; 1 bytes @ 0x14
  2110                           
  2111                           
  2112                           ; 4 bytes @ 0x14
  2113  0034                     	ds	1
  2114  0035                     ?_write_ds1307:
  2115  0035                     write_ds1307@data:	
  2116                           ; 1 bytes @ 0x15
  2117                           
  2118  0035                     view_log@ch:	
  2119                           ; 1 bytes @ 0x15
  2120                           
  2121  0035                     change_password@k:	
  2122                           ; 1 bytes @ 0x15
  2123                           
  2124                           
  2125                           ; 1 bytes @ 0x15
  2126  0035                     	ds	1
  2127  0036                     ??_init_ds1307:
  2128  0036                     display_dash_screen@event:	
  2129                           ; 1 bytes @ 0x16
  2130                           
  2131                           
  2132                           ; 1 bytes @ 0x16
  2133  0036                     	ds	1
  2134  0037                     init_ds1307@dummy:
  2135                           
  2136                           ; 1 bytes @ 0x17
  2137  0037                     	ds	1
  2138  0038                     login@reset_flag:
  2139                           
  2140                           ; 1 bytes @ 0x18
  2141  0038                     	ds	1
  2142  0039                     login@j:
  2143                           
  2144                           ; 1 bytes @ 0x19
  2145  0039                     	ds	1
  2146  003A                     ??_main:
  2147                           
  2148                           ; 1 bytes @ 0x1A
  2149  003A                     	ds	4
  2150                           
  2151                           	psect	maintext
  2152  0048                     __pmaintext:	
  2153 ;;
  2154 ;;Main: autosize = 0, tempsize = 4, incstack = 0, save=0
  2155 ;;
  2156 ;; *************** function _main *****************
  2157 ;; Defined at:
  2158 ;;		line 36 in file "main.c"
  2159 ;; Parameters:    Size  Location     Type
  2160 ;;		None
  2161 ;; Auto vars:     Size  Location     Type
  2162 ;;  gear           12    0[BANK3 ] PTR const unsigned char 
  2163 ;;		 -> STR_6(3), STR_5(3), STR_4(3), STR_3(3), 
  2164 ;;		 -> STR_2(3), STR_1(3), 
  2165 ;;  event           3   23[BANK3 ] unsigned char [3]
  2166 ;;  gr              2   26[BANK3 ] unsigned int 
  2167 ;;  delay5          2   20[BANK3 ] unsigned int 
  2168 ;;  delay4          2   18[BANK3 ] unsigned int 
  2169 ;;  delay3          2   16[BANK3 ] unsigned int 
  2170 ;;  delay2          2   14[BANK3 ] unsigned int 
  2171 ;;  delay1          2   12[BANK3 ] unsigned int 
  2172 ;;  control_flag    1   32[BANK3 ] unsigned char 
  2173 ;;  key             1   31[BANK3 ] unsigned char 
  2174 ;;  reset_flag      1   30[BANK3 ] unsigned char 
  2175 ;;  speed           1   29[BANK3 ] unsigned char 
  2176 ;;  key_level       1   28[BANK3 ] unsigned char 
  2177 ;;  menu_pos        1   22[BANK3 ] unsigned char 
  2178 ;; Return value:  Size  Location     Type
  2179 ;;                  1    wreg      void 
  2180 ;; Registers used:
  2181 ;;		wreg, fsr0l, fsr0h, status,2, status,0, btemp+1, pclath, cstack
  2182 ;; Tracked objects:
  2183 ;;		On entry : B00/0
  2184 ;;		On exit  : 0/0
  2185 ;;		Unchanged: 0/0
  2186 ;; Data sizes:     COMMON   BANK0   BANK1   BANK3   BANK2
  2187 ;;      Params:         0       0       0       0       0
  2188 ;;      Locals:         0       0       0      33       0
  2189 ;;      Temps:          0       4       0       0       0
  2190 ;;      Totals:         0       4       0      33       0
  2191 ;;Total ram usage:       37 bytes
  2192 ;; Hardware stack levels required when called: 8
  2193 ;; This function calls:
  2194 ;;		___lwdiv
  2195 ;;		_change_password
  2196 ;;		_clcd_print
  2197 ;;		_clcd_putch
  2198 ;;		_clcd_write
  2199 ;;		_clear_screen
  2200 ;;		_dec2bcd
  2201 ;;		_display_dash_screen
  2202 ;;		_download_log
  2203 ;;		_init_config
  2204 ;;		_log_event
  2205 ;;		_login
  2206 ;;		_login_menu
  2207 ;;		_read_adc
  2208 ;;		_read_digital_keypad
  2209 ;;		_set_time
  2210 ;;		_str_write_EEPROM
  2211 ;;		_strcpy
  2212 ;;		_view_log
  2213 ;;		_write_ds1307
  2214 ;; This function is called by:
  2215 ;;		Startup code after reset
  2216 ;; This function uses a non-reentrant model
  2217 ;;
  2218                           
  2219                           
  2220                           ;psect for function _main
  2221  0048                     _main:
  2222  0048                     l5553:	
  2223                           ;incstack = 0
  2224                           ; Regs used in _main: [wreg-fsr0h+status,2+status,0+btemp+1+pclath+cstack]
  2225                           
  2226                           
  2227                           ;main.c: 38:         key = read_digital_keypad(1);
  2228  0048  1683               	bsf	3,5	;RP0=1, select bank3
  2229  0049  1703               	bsf	3,6	;RP1=1, select bank3
  2230  004A  01B0               	clrf	main@control_flag^(0+384)
  2231  004B  0AB0               	incf	main@control_flag^(0+384),f
  2232  004C                     l5555:
  2233                           
  2234                           ;main.c: 39:         key_level = read_digital_keypad(0);
  2235  004C  3090               	movlw	main@gear& (0+255)
  2236  004D  0084               	movwf	4
  2237  004E  30C9               	movlw	low main@F1017
  2238  004F  1283               	bcf	3,5	;RP0=0, select bank0
  2239  0050  1303               	bcf	3,6	;RP1=0, select bank0
  2240  0051  00BA               	movwf	??_main
  2241  0052  0804               	movf	4,w
  2242  0053  00BB               	movwf	??_main+1
  2243  0054  300C               	movlw	12
  2244  0055  00BC               	movwf	??_main+2
  2245  0056                     u5050:
  2246  0056  083A               	movf	??_main,w
  2247  0057  0084               	movwf	4
  2248  0058  1383               	bcf	3,7	;select IRP bank1
  2249  0059  0800               	movf	0,w
  2250  005A  00BD               	movwf	??_main+3
  2251  005B  0ABA               	incf	??_main,f
  2252  005C  083B               	movf	??_main+1,w
  2253  005D  0084               	movwf	4
  2254  005E  1783               	bsf	3,7	;select IRP bank3
  2255  005F  083D               	movf	??_main+3,w
  2256  0060  0080               	movwf	0
  2257  0061  0ABB               	incf	??_main+1,f
  2258  0062  0BBC               	decfsz	??_main+2,f
  2259  0063  2856               	goto	u5050
  2260  0064                     l5557:
  2261                           
  2262                           ;main.c: 40: 
  2263  0064  1683               	bsf	3,5	;RP0=1, select bank3
  2264  0065  1703               	bsf	3,6	;RP1=1, select bank3
  2265  0066  01AD               	clrf	main@speed^(0+384)
  2266  0067                     l5559:
  2267                           
  2268                           ;main.c: 41:         if(key == 0x3E)
  2269  0067  1683               	bsf	3,5	;RP0=1, select bank1
  2270  0068  1303               	bcf	3,6	;RP1=0, select bank1
  2271  0069  085F               	movf	main@F1020^(0+128),w
  2272  006A  1683               	bsf	3,5	;RP0=1, select bank3
  2273  006B  1703               	bsf	3,6	;RP1=1, select bank3
  2274  006C  00A7               	movwf	main@event^(0+384)
  2275  006D  1683               	bsf	3,5	;RP0=1, select bank1
  2276  006E  1303               	bcf	3,6	;RP1=0, select bank1
  2277  006F  0860               	movf	(main@F1020+1)^(0+128),w
  2278  0070  1683               	bsf	3,5	;RP0=1, select bank3
  2279  0071  1703               	bsf	3,6	;RP1=1, select bank3
  2280  0072  00A8               	movwf	(main@event+1)^(0+384)
  2281  0073  1683               	bsf	3,5	;RP0=1, select bank1
  2282  0074  1303               	bcf	3,6	;RP1=0, select bank1
  2283  0075  0861               	movf	(main@F1020+2)^(0+128),w
  2284  0076  1683               	bsf	3,5	;RP0=1, select bank3
  2285  0077  1703               	bsf	3,6	;RP1=1, select bank3
  2286  0078  00A9               	movwf	(main@event+2)^(0+384)
  2287  0079                     l5561:
  2288                           
  2289                           ;main.c: 42:         {;main.c: 43: ;main.c: 44:             strcpy(event, "C ");
  2290  0079  01AA               	clrf	main@gr^(0+384)
  2291  007A  01AB               	clrf	(main@gr+1)^(0+384)
  2292  007B                     l5563:
  2293  007B  019C               	clrf	main@delay1^(0+384)
  2294  007C  019D               	clrf	(main@delay1+1)^(0+384)
  2295  007D                     l5565:
  2296  007D  019E               	clrf	main@delay2^(0+384)
  2297  007E  019F               	clrf	(main@delay2+1)^(0+384)
  2298  007F                     l5567:
  2299  007F  01A0               	clrf	main@delay3^(0+384)
  2300  0080  01A1               	clrf	(main@delay3+1)^(0+384)
  2301  0081                     l5569:
  2302  0081  01A2               	clrf	main@delay4^(0+384)
  2303  0082  01A3               	clrf	(main@delay4+1)^(0+384)
  2304  0083                     l5571:
  2305  0083  01A4               	clrf	main@delay5^(0+384)
  2306  0084  01A5               	clrf	(main@delay5+1)^(0+384)
  2307  0085                     l5573:
  2308                           
  2309                           ;main.c: 45:             log_event(event, speed);
  2310  0085  160A  118A  23F2  120A  118A  	fcall	_init_config
  2311  008A                     l5575:
  2312                           
  2313                           ;main.c: 46:         }
  2314  008A  3047               	movlw	low (STR_7| (0+32768))
  2315  008B  1283               	bcf	3,5	;RP0=0, select bank0
  2316  008C  1303               	bcf	3,6	;RP1=0, select bank0
  2317  008D  00A0               	movwf	str_write_EEPROM@data
  2318  008E  3091               	movlw	high (STR_7| (0+32768))
  2319  008F  00A1               	movwf	str_write_EEPROM@data+1
  2320  0090  3000               	movlw	0
  2321  0091  160A  118A  224E  120A  118A  	fcall	_str_write_EEPROM
  2322  0096                     l5577:
  2323                           
  2324                           ;main.c: 50:             strcpy(event, gear[gr]);
  2325  0096  3001               	movlw	1
  2326  0097  160A  118A  2224  120A  118A  	fcall	_read_digital_keypad
  2327  009C  1283               	bcf	3,5	;RP0=0, select bank0
  2328  009D  1303               	bcf	3,6	;RP1=0, select bank0
  2329  009E  00BA               	movwf	??_main
  2330  009F  083A               	movf	??_main,w
  2331  00A0  1683               	bsf	3,5	;RP0=1, select bank3
  2332  00A1  1703               	bsf	3,6	;RP1=1, select bank3
  2333  00A2  00AF               	movwf	main@key^(0+384)
  2334  00A3                     l5579:
  2335                           
  2336                           ;main.c: 51:             log_event(event, speed);
  2337  00A3  3000               	movlw	0
  2338  00A4  160A  118A  2224  120A  118A  	fcall	_read_digital_keypad
  2339  00A9  1283               	bcf	3,5	;RP0=0, select bank0
  2340  00AA  1303               	bcf	3,6	;RP1=0, select bank0
  2341  00AB  00BA               	movwf	??_main
  2342  00AC  083A               	movf	??_main,w
  2343  00AD  1683               	bsf	3,5	;RP0=1, select bank3
  2344  00AE  1703               	bsf	3,6	;RP1=1, select bank3
  2345  00AF  00AC               	movwf	main@key_level^(0+384)
  2346  00B0                     l5581:
  2347                           
  2348                           ;main.c: 53:         }
  2349  00B0  303E               	movlw	62
  2350  00B1  062F               	xorwf	main@key^(0+384),w
  2351  00B2  1D03               	btfss	3,2
  2352  00B3  28B5               	goto	u5061
  2353  00B4  28B6               	goto	u5060
  2354  00B5                     u5061:
  2355  00B5  28CF               	goto	l5585
  2356  00B6                     u5060:
  2357  00B6                     l5583:
  2358                           
  2359                           ;main.c: 54:         else if(key == 0x3B && gr > 0);main.c: 56: 
  2360  00B6  304C               	movlw	low (STR_8| (0+32768))
  2361  00B7  00F4               	movwf	strcpy@from
  2362  00B8  3091               	movlw	high (STR_8| (0+32768))
  2363  00B9  00F5               	movwf	strcpy@from+1
  2364  00BA  30A7               	movlw	(low (main@event| (0+256)))& (0+255)
  2365  00BB  160A  118A  21FD  120A  118A  	fcall	_strcpy
  2366                           
  2367                           ;main.c: 57:             gr--;
  2368  00C0  1683               	bsf	3,5	;RP0=1, select bank3
  2369  00C1  1703               	bsf	3,6	;RP1=1, select bank3
  2370  00C2  082D               	movf	main@speed^(0+384),w
  2371  00C3  1283               	bcf	3,5	;RP0=0, select bank0
  2372  00C4  1303               	bcf	3,6	;RP1=0, select bank0
  2373  00C5  00BA               	movwf	??_main
  2374  00C6  083A               	movf	??_main,w
  2375  00C7  00AE               	movwf	log_event@speed
  2376  00C8  30A7               	movlw	(low (main@event| (0+256)))& (0+255)
  2377  00C9  160A  118A  25A7  120A  118A  	fcall	_log_event
  2378                           
  2379                           ;main.c: 58:             strcpy(event, gear[gr]);
  2380  00CE  2B07               	goto	l5727
  2381  00CF                     l5585:
  2382  00CF  303D               	movlw	61
  2383  00D0  062F               	xorwf	main@key^(0+384),w
  2384  00D1  1D03               	btfss	3,2
  2385  00D2  28D4               	goto	u5071
  2386  00D3  28D5               	goto	u5070
  2387  00D4                     u5071:
  2388  00D4  2909               	goto	l5593
  2389  00D5                     u5070:
  2390  00D5                     l5587:
  2391  00D5  3000               	movlw	0
  2392  00D6  022B               	subwf	(main@gr+1)^(0+384),w
  2393  00D7  3006               	movlw	6
  2394  00D8  1903               	skipnz
  2395  00D9  022A               	subwf	main@gr^(0+384),w
  2396  00DA  1803               	skipnc
  2397  00DB  28DD               	goto	u5081
  2398  00DC  28DE               	goto	u5080
  2399  00DD                     u5081:
  2400  00DD  2909               	goto	l5593
  2401  00DE                     u5080:
  2402  00DE                     l5589:
  2403                           
  2404                           ;main.c: 60:         };main.c: 62:         {
  2405  00DE  082A               	movf	main@gr^(0+384),w
  2406  00DF  1283               	bcf	3,5	;RP0=0, select bank0
  2407  00E0  1303               	bcf	3,6	;RP1=0, select bank0
  2408  00E1  00BA               	movwf	??_main
  2409  00E2  073A               	addwf	??_main,w
  2410  00E3  3E90               	addlw	(low (main@gear| (0+256)))& (0+255)
  2411  00E4  0084               	movwf	4
  2412  00E5  1783               	bsf	3,7	;select IRP bank3
  2413  00E6  0800               	movf	0,w
  2414  00E7  00F4               	movwf	strcpy@from
  2415  00E8  0A84               	incf	4,f
  2416  00E9  0800               	movf	0,w
  2417  00EA  0384               	decf	4,f
  2418  00EB  00F5               	movwf	strcpy@from+1
  2419  00EC  30A7               	movlw	(low (main@event| (0+256)))& (0+255)
  2420  00ED  160A  118A  21FD  120A  118A  	fcall	_strcpy
  2421                           
  2422                           ;main.c: 63: 
  2423  00F2  1683               	bsf	3,5	;RP0=1, select bank3
  2424  00F3  1703               	bsf	3,6	;RP1=1, select bank3
  2425  00F4  082D               	movf	main@speed^(0+384),w
  2426  00F5  1283               	bcf	3,5	;RP0=0, select bank0
  2427  00F6  1303               	bcf	3,6	;RP1=0, select bank0
  2428  00F7  00BA               	movwf	??_main
  2429  00F8  083A               	movf	??_main,w
  2430  00F9  00AE               	movwf	log_event@speed
  2431  00FA  30A7               	movlw	(low (main@event| (0+256)))& (0+255)
  2432  00FB  160A  118A  25A7  120A  118A  	fcall	_log_event
  2433  0100                     l5591:
  2434                           
  2435                           ;main.c: 64:             clear_screen();
  2436  0100  3001               	movlw	1
  2437  0101  1683               	bsf	3,5	;RP0=1, select bank3
  2438  0102  1703               	bsf	3,6	;RP1=1, select bank3
  2439  0103  07AA               	addwf	main@gr^(0+384),f
  2440  0104  1803               	skipnc
  2441  0105  0AAB               	incf	(main@gr+1)^(0+384),f
  2442  0106  3000               	movlw	0
  2443  0107  07AB               	addwf	(main@gr+1)^(0+384),f
  2444                           
  2445                           ;main.c: 65:             clcd_print(" ENTER PASSWORD ", (0x80 + 0));
  2446  0108  2B07               	goto	l5727
  2447  0109                     l5593:
  2448  0109  303B               	movlw	59
  2449  010A  062F               	xorwf	main@key^(0+384),w
  2450  010B  1D03               	btfss	3,2
  2451  010C  290E               	goto	u5091
  2452  010D  290F               	goto	u5090
  2453  010E                     u5091:
  2454  010E  293E               	goto	l5603
  2455  010F                     u5090:
  2456  010F                     l5595:
  2457  010F  082A               	movf	main@gr^(0+384),w
  2458  0110  042B               	iorwf	(main@gr+1)^(0+384),w
  2459  0111  1903               	btfsc	3,2
  2460  0112  2914               	goto	u5101
  2461  0113  2915               	goto	u5100
  2462  0114                     u5101:
  2463  0114  293E               	goto	l5603
  2464  0115                     u5100:
  2465  0115                     l5597:
  2466                           
  2467                           ;main.c: 67:             clcd_write(0x0F, 0);;main.c: 69:             control_flag = 0x0
      +                          2;
  2468  0115  3001               	movlw	1
  2469  0116  02AA               	subwf	main@gr^(0+384),f
  2470  0117  3000               	movlw	0
  2471  0118  1C03               	skipc
  2472  0119  03AB               	decf	(main@gr+1)^(0+384),f
  2473  011A  02AB               	subwf	(main@gr+1)^(0+384),f
  2474  011B                     l5599:
  2475                           
  2476                           ;main.c: 70:             reset_flag = 0x10;
  2477  011B  082A               	movf	main@gr^(0+384),w
  2478  011C  1283               	bcf	3,5	;RP0=0, select bank0
  2479  011D  1303               	bcf	3,6	;RP1=0, select bank0
  2480  011E  00BA               	movwf	??_main
  2481  011F  073A               	addwf	??_main,w
  2482  0120  3E90               	addlw	(low (main@gear| (0+256)))& (0+255)
  2483  0121  0084               	movwf	4
  2484  0122  1783               	bsf	3,7	;select IRP bank3
  2485  0123  0800               	movf	0,w
  2486  0124  00F4               	movwf	strcpy@from
  2487  0125  0A84               	incf	4,f
  2488  0126  0800               	movf	0,w
  2489  0127  0384               	decf	4,f
  2490  0128  00F5               	movwf	strcpy@from+1
  2491  0129  30A7               	movlw	(low (main@event| (0+256)))& (0+255)
  2492  012A  160A  118A  21FD  120A  118A  	fcall	_strcpy
  2493  012F                     l5601:
  2494                           
  2495                           ;main.c: 71: 
  2496  012F  1683               	bsf	3,5	;RP0=1, select bank3
  2497  0130  1703               	bsf	3,6	;RP1=1, select bank3
  2498  0131  082D               	movf	main@speed^(0+384),w
  2499  0132  1283               	bcf	3,5	;RP0=0, select bank0
  2500  0133  1303               	bcf	3,6	;RP1=0, select bank0
  2501  0134  00BA               	movwf	??_main
  2502  0135  083A               	movf	??_main,w
  2503  0136  00AE               	movwf	log_event@speed
  2504  0137  30A7               	movlw	(low (main@event| (0+256)))& (0+255)
  2505  0138  160A  118A  25A7  120A  118A  	fcall	_log_event
  2506                           
  2507                           ;main.c: 72:             TMR2ON = 1;
  2508  013D  2B07               	goto	l5727
  2509  013E                     l5603:
  2510  013E  0330               	decf	main@control_flag^(0+384),w
  2511  013F  1D03               	btfss	3,2
  2512  0140  2942               	goto	u5111
  2513  0141  2943               	goto	u5110
  2514  0142                     u5111:
  2515  0142  2991               	goto	l5625
  2516  0143                     u5110:
  2517  0143                     l5605:
  2518  0143  3037               	movlw	55
  2519  0144  062F               	xorwf	main@key^(0+384),w
  2520  0145  1903               	btfsc	3,2
  2521  0146  2948               	goto	u5121
  2522  0147  2949               	goto	u5120
  2523  0148                     u5121:
  2524  0148  294F               	goto	l5609
  2525  0149                     u5120:
  2526  0149                     l5607:
  2527  0149  302F               	movlw	47
  2528  014A  062F               	xorwf	main@key^(0+384),w
  2529  014B  1D03               	btfss	3,2
  2530  014C  294E               	goto	u5131
  2531  014D  294F               	goto	u5130
  2532  014E                     u5131:
  2533  014E  2991               	goto	l5625
  2534  014F                     u5130:
  2535  014F                     l5609:
  2536                           
  2537                           ;main.c: 74:         else if((control_flag == 0x03) && (key_level == 0x37) && (delay1++ 
      +                          == 20));main.c: 76: 
  2538  014F  160A  158A  2749  120A  118A  	fcall	_clear_screen
  2539  0154                     l5611:
  2540                           
  2541                           ;main.c: 77:             delay1 = 0;
  2542  0154  3069               	movlw	low (STR_9| (0+32768))
  2543  0155  1283               	bcf	3,5	;RP0=0, select bank0
  2544  0156  1303               	bcf	3,6	;RP1=0, select bank0
  2545  0157  00A1               	movwf	clcd_print@str
  2546  0158  3090               	movlw	high (STR_9| (0+32768))
  2547  0159  00A2               	movwf	clcd_print@str+1
  2548  015A  3080               	movlw	128
  2549  015B  00BA               	movwf	??_main
  2550  015C  083A               	movf	??_main,w
  2551  015D  00A3               	movwf	clcd_print@addr
  2552  015E  160A  118A  22B1  120A  118A  	fcall	_clcd_print
  2553  0163                     l5613:
  2554                           
  2555                           ;main.c: 78:             switch(menu_pos)
  2556  0163  30C5               	movlw	197
  2557  0164  1283               	bcf	3,5	;RP0=0, select bank0
  2558  0165  1303               	bcf	3,6	;RP1=0, select bank0
  2559  0166  00BA               	movwf	??_main
  2560  0167  083A               	movf	??_main,w
  2561  0168  00AE               	movwf	clcd_putch@addr
  2562  0169  3020               	movlw	32
  2563  016A  160A  158A  2782  120A  118A  	fcall	_clcd_putch
  2564  016F                     l5615:
  2565                           
  2566                           ;main.c: 79:             {
  2567  016F  01F4               	clrf	clcd_write@mode
  2568  0170  300F               	movlw	15
  2569  0171  160A  118A  2382  120A  118A  	fcall	_clcd_write
  2570  0176                     l5617:
  2571                           
  2572                           ;main.c: 80:                 case 0 :
  2573  0176  30A5               	movlw	165
  2574  0177  1283               	bcf	3,5	;RP0=0, select bank0
  2575  0178  1303               	bcf	3,6	;RP1=0, select bank0
  2576  0179  00BA               	movwf	??_main
  2577  017A                     u5327:
  2578  017A  0BBA               	decfsz	??_main,f
  2579  017B  297A               	goto	u5327
  2580  017C  297D               	nop2
  2581  017D                     l5619:
  2582                           
  2583                           ;main.c: 81: 
  2584  017D  3002               	movlw	2
  2585  017E  1283               	bcf	3,5	;RP0=0, select bank0
  2586  017F  1303               	bcf	3,6	;RP1=0, select bank0
  2587  0180  00BA               	movwf	??_main
  2588  0181  083A               	movf	??_main,w
  2589  0182  1683               	bsf	3,5	;RP0=1, select bank3
  2590  0183  1703               	bsf	3,6	;RP1=1, select bank3
  2591  0184  00B0               	movwf	main@control_flag^(0+384)
  2592  0185                     l5621:
  2593                           
  2594                           ;main.c: 82:                     control_flag = 0x04;
  2595  0185  3010               	movlw	16
  2596  0186  1283               	bcf	3,5	;RP0=0, select bank0
  2597  0187  1303               	bcf	3,6	;RP1=0, select bank0
  2598  0188  00BA               	movwf	??_main
  2599  0189  083A               	movf	??_main,w
  2600  018A  1683               	bsf	3,5	;RP0=1, select bank3
  2601  018B  1703               	bsf	3,6	;RP1=1, select bank3
  2602  018C  00AE               	movwf	main@reset_flag^(0+384)
  2603  018D                     l5623:
  2604                           
  2605                           ;main.c: 84:                     clear_screen();
  2606  018D  1283               	bcf	3,5	;RP0=0, select bank0
  2607  018E  1303               	bcf	3,6	;RP1=0, select bank0
  2608  018F  1512               	bsf	18,2	;volatile
  2609                           
  2610                           ;main.c: 85:                     break;
  2611  0190  2B07               	goto	l5727
  2612  0191                     l5625:
  2613  0191  3003               	movlw	3
  2614  0192  0630               	xorwf	main@control_flag^(0+384),w
  2615  0193  1D03               	btfss	3,2
  2616  0194  2996               	goto	u5141
  2617  0195  2997               	goto	u5140
  2618  0196                     u5141:
  2619  0196  2A32               	goto	l5665
  2620  0197                     u5140:
  2621  0197                     l5627:
  2622  0197  3037               	movlw	55
  2623  0198  062C               	xorwf	main@key_level^(0+384),w
  2624  0199  1D03               	btfss	3,2
  2625  019A  299C               	goto	u5151
  2626  019B  299D               	goto	u5150
  2627  019C                     u5151:
  2628  019C  2A32               	goto	l5665
  2629  019D                     u5150:
  2630  019D                     l5629:
  2631  019D  3001               	movlw	1
  2632  019E  079C               	addwf	main@delay1^(0+384),f
  2633  019F  1803               	skipnc
  2634  01A0  0A9D               	incf	(main@delay1+1)^(0+384),f
  2635  01A1  3000               	movlw	0
  2636  01A2  079D               	addwf	(main@delay1+1)^(0+384),f
  2637  01A3  3015               	movlw	21
  2638  01A4  061C               	xorwf	main@delay1^(0+384),w
  2639  01A5  041D               	iorwf	(main@delay1+1)^(0+384),w
  2640  01A6  1D03               	btfss	3,2
  2641  01A7  29A9               	goto	u5161
  2642  01A8  29AA               	goto	u5160
  2643  01A9                     u5161:
  2644  01A9  2A32               	goto	l5665
  2645  01AA                     u5160:
  2646  01AA                     l5631:
  2647                           
  2648                           ;main.c: 87: ;main.c: 89:                     access = 0;
  2649  01AA  019C               	clrf	main@delay1^(0+384)
  2650  01AB  019D               	clrf	(main@delay1+1)^(0+384)
  2651                           
  2652                           ;main.c: 90:                     clear_screen();
  2653  01AC  2A16               	goto	l5663
  2654  01AD                     l5633:
  2655                           
  2656                           ;main.c: 94:                     break;
  2657  01AD  3004               	movlw	4
  2658  01AE  00BA               	movwf	??_main
  2659  01AF  083A               	movf	??_main,w
  2660  01B0  1683               	bsf	3,5	;RP0=1, select bank3
  2661  01B1  1703               	bsf	3,6	;RP1=1, select bank3
  2662  01B2  00B0               	movwf	main@control_flag^(0+384)
  2663                           
  2664                           ;main.c: 95:                 case 2 :
  2665  01B3  3013               	movlw	19
  2666  01B4  1283               	bcf	3,5	;RP0=0, select bank0
  2667  01B5  1303               	bcf	3,6	;RP1=0, select bank0
  2668  01B6  00BA               	movwf	??_main
  2669  01B7  083A               	movf	??_main,w
  2670  01B8  1683               	bsf	3,5	;RP0=1, select bank3
  2671  01B9  1703               	bsf	3,6	;RP1=1, select bank3
  2672  01BA  00AE               	movwf	main@reset_flag^(0+384)
  2673  01BB                     l5635:
  2674                           
  2675                           ;main.c: 96: 
  2676  01BB  160A  158A  2749  120A  118A  	fcall	_clear_screen
  2677                           
  2678                           ;main.c: 97:                     control_flag = 0x06;
  2679  01C0  2B07               	goto	l5727
  2680  01C1                     l5637:
  2681                           
  2682                           ;main.c: 100:                     break;
  2683  01C1  30FF               	movlw	255
  2684  01C2  00F7               	movwf	_pos
  2685  01C3  30FF               	movlw	255
  2686  01C4  00F8               	movwf	_pos+1
  2687  01C5                     l5639:
  2688                           
  2689                           ;main.c: 101:                 case 3 :
  2690  01C5  01F9               	clrf	_access
  2691  01C6                     l5641:
  2692                           
  2693                           ;main.c: 102: 
  2694  01C6  160A  158A  2749  120A  118A  	fcall	_clear_screen
  2695  01CB                     l5643:
  2696                           
  2697                           ;main.c: 103:                     control_flag = 0x07;
  2698  01CB  301E               	movlw	low (STR_10| (0+32768))
  2699  01CC  1283               	bcf	3,5	;RP0=0, select bank0
  2700  01CD  1303               	bcf	3,6	;RP1=0, select bank0
  2701  01CE  00A1               	movwf	clcd_print@str
  2702  01CF  3091               	movlw	high (STR_10| (0+32768))
  2703  01D0  00A2               	movwf	clcd_print@str+1
  2704  01D1  3081               	movlw	129
  2705  01D2  00BA               	movwf	??_main
  2706  01D3  083A               	movf	??_main,w
  2707  01D4  00A3               	movwf	clcd_print@addr
  2708  01D5  160A  118A  22B1  120A  118A  	fcall	_clcd_print
  2709  01DA                     l5645:
  2710                           
  2711                           ;main.c: 104:                     reset_flag = 0x14;
  2712  01DA  304D               	movlw	77
  2713  01DB  1283               	bcf	3,5	;RP0=0, select bank0
  2714  01DC  1303               	bcf	3,6	;RP1=0, select bank0
  2715  01DD  00BC               	movwf	??_main+2
  2716  01DE  3019               	movlw	25
  2717  01DF  00BB               	movwf	??_main+1
  2718  01E0  304F               	movlw	79
  2719  01E1  00BA               	movwf	??_main
  2720  01E2                     u5337:
  2721  01E2  0BBA               	decfsz	??_main,f
  2722  01E3  29E2               	goto	u5337
  2723  01E4  0BBB               	decfsz	??_main+1,f
  2724  01E5  29E2               	goto	u5337
  2725  01E6  0BBC               	decfsz	??_main+2,f
  2726  01E7  29E2               	goto	u5337
  2727  01E8  29BB               	goto	l5635
  2728  01E9                     l5649:
  2729                           
  2730                           ;main.c: 109:                     control_flag = 0x08;
  2731  01E9  3006               	movlw	6
  2732  01EA  00BA               	movwf	??_main
  2733  01EB  083A               	movf	??_main,w
  2734  01EC  1683               	bsf	3,5	;RP0=1, select bank3
  2735  01ED  1703               	bsf	3,6	;RP1=1, select bank3
  2736  01EE  00B0               	movwf	main@control_flag^(0+384)
  2737                           
  2738                           ;main.c: 110:                     reset_flag = 0x10;
  2739  01EF  3015               	movlw	21
  2740  01F0  1283               	bcf	3,5	;RP0=0, select bank0
  2741  01F1  1303               	bcf	3,6	;RP1=0, select bank0
  2742  01F2  00BA               	movwf	??_main
  2743  01F3  083A               	movf	??_main,w
  2744  01F4  1683               	bsf	3,5	;RP0=1, select bank3
  2745  01F5  1703               	bsf	3,6	;RP1=1, select bank3
  2746  01F6  00AE               	movwf	main@reset_flag^(0+384)
  2747  01F7  29BB               	goto	l5635
  2748  01F8                     l5653:
  2749                           
  2750                           ;main.c: 115:         else if((control_flag == 0x03) && (key_level == 0x2F) && (delay2++
      +                           == 20))
  2751  01F8  3007               	movlw	7
  2752  01F9  00BA               	movwf	??_main
  2753  01FA  083A               	movf	??_main,w
  2754  01FB  1683               	bsf	3,5	;RP0=1, select bank3
  2755  01FC  1703               	bsf	3,6	;RP1=1, select bank3
  2756  01FD  00B0               	movwf	main@control_flag^(0+384)
  2757                           
  2758                           ;main.c: 116:         {
  2759  01FE  3014               	movlw	20
  2760  01FF  1283               	bcf	3,5	;RP0=0, select bank0
  2761  0200  1303               	bcf	3,6	;RP1=0, select bank0
  2762  0201  00BA               	movwf	??_main
  2763  0202  083A               	movf	??_main,w
  2764  0203  1683               	bsf	3,5	;RP0=1, select bank3
  2765  0204  1703               	bsf	3,6	;RP1=1, select bank3
  2766  0205  00AE               	movwf	main@reset_flag^(0+384)
  2767  0206  29BB               	goto	l5635
  2768  0207                     l5657:
  2769                           
  2770                           ;main.c: 121:             control_flag = 0x01;
  2771  0207  3008               	movlw	8
  2772  0208  00BA               	movwf	??_main
  2773  0209  083A               	movf	??_main,w
  2774  020A  1683               	bsf	3,5	;RP0=1, select bank3
  2775  020B  1703               	bsf	3,6	;RP1=1, select bank3
  2776  020C  00B0               	movwf	main@control_flag^(0+384)
  2777                           
  2778                           ;main.c: 122:             clear_screen();
  2779  020D  3010               	movlw	16
  2780  020E  1283               	bcf	3,5	;RP0=0, select bank0
  2781  020F  1303               	bcf	3,6	;RP1=0, select bank0
  2782  0210  00BA               	movwf	??_main
  2783  0211  083A               	movf	??_main,w
  2784  0212  1683               	bsf	3,5	;RP0=1, select bank3
  2785  0213  1703               	bsf	3,6	;RP1=1, select bank3
  2786  0214  00AE               	movwf	main@reset_flag^(0+384)
  2787  0215  29BB               	goto	l5635
  2788  0216                     l5663:
  2789  0216  0826               	movf	main@menu_pos^(0+384),w
  2790  0217  1283               	bcf	3,5	;RP0=0, select bank0
  2791  0218  1303               	bcf	3,6	;RP1=0, select bank0
  2792  0219  00BA               	movwf	??_main
  2793  021A  01BB               	clrf	??_main+1
  2794                           
  2795                           ; Switch on 2 bytes has been partitioned into a top level switch of size 1, and 1 sub-sw
      +                          itches
  2796                           ; Switch size 1, requested type "simple"
  2797                           ; Number of cases is 1, Range of values is 0 to 0
  2798                           ; switch strategies available:
  2799                           ; Name         Instructions Cycles
  2800                           ; simple_byte            4     3 (average)
  2801                           ; direct_byte           11     8 (fixed)
  2802                           ; jumptable            260     6 (fixed)
  2803                           ;	Chosen strategy is simple_byte
  2804  021B  083B               	movf	??_main+1,w
  2805  021C  3A00               	xorlw	0	; case 0
  2806  021D  1903               	skipnz
  2807  021E  2A20               	goto	l5977
  2808  021F  2B07               	goto	l5727
  2809  0220                     l5977:
  2810                           
  2811                           ; Switch size 1, requested type "simple"
  2812                           ; Number of cases is 5, Range of values is 0 to 4
  2813                           ; switch strategies available:
  2814                           ; Name         Instructions Cycles
  2815                           ; simple_byte           16     9 (average)
  2816                           ; direct_byte           23     8 (fixed)
  2817                           ; jumptable            260     6 (fixed)
  2818                           ;	Chosen strategy is simple_byte
  2819  0220  083A               	movf	??_main,w
  2820  0221  3A00               	xorlw	0	; case 0
  2821  0222  1903               	skipnz
  2822  0223  29AD               	goto	l5633
  2823  0224  3A01               	xorlw	1	; case 1
  2824  0225  1903               	skipnz
  2825  0226  29C1               	goto	l5637
  2826  0227  3A03               	xorlw	3	; case 2
  2827  0228  1903               	skipnz
  2828  0229  29E9               	goto	l5649
  2829  022A  3A01               	xorlw	1	; case 3
  2830  022B  1903               	skipnz
  2831  022C  29F8               	goto	l5653
  2832  022D  3A07               	xorlw	7	; case 4
  2833  022E  1903               	skipnz
  2834  022F  2A07               	goto	l5657
  2835  0230  2B07               	goto	l5727
  2836  0231                     l201:
  2837                           
  2838                           ;main.c: 126: 
  2839  0231  2B07               	goto	l5727
  2840  0232                     l5665:
  2841  0232  3003               	movlw	3
  2842  0233  0630               	xorwf	main@control_flag^(0+384),w
  2843  0234  1D03               	btfss	3,2
  2844  0235  2A37               	goto	u5171
  2845  0236  2A38               	goto	u5170
  2846  0237                     u5171:
  2847  0237  2A55               	goto	l5679
  2848  0238                     u5170:
  2849  0238                     l5667:
  2850  0238  302F               	movlw	47
  2851  0239  062C               	xorwf	main@key_level^(0+384),w
  2852  023A  1D03               	btfss	3,2
  2853  023B  2A3D               	goto	u5181
  2854  023C  2A3E               	goto	u5180
  2855  023D                     u5181:
  2856  023D  2A55               	goto	l5679
  2857  023E                     u5180:
  2858  023E                     l5669:
  2859  023E  3001               	movlw	1
  2860  023F  079E               	addwf	main@delay2^(0+384),f
  2861  0240  1803               	skipnc
  2862  0241  0A9F               	incf	(main@delay2+1)^(0+384),f
  2863  0242  3000               	movlw	0
  2864  0243  079F               	addwf	(main@delay2+1)^(0+384),f
  2865  0244  3015               	movlw	21
  2866  0245  061E               	xorwf	main@delay2^(0+384),w
  2867  0246  041F               	iorwf	(main@delay2+1)^(0+384),w
  2868  0247  1D03               	btfss	3,2
  2869  0248  2A4A               	goto	u5191
  2870  0249  2A4B               	goto	u5190
  2871  024A                     u5191:
  2872  024A  2A55               	goto	l5679
  2873  024B                     u5190:
  2874  024B                     l5671:
  2875                           
  2876                           ;main.c: 128:             TMR2ON = 0;;main.c: 131:             clear_screen();
  2877  024B  1283               	bcf	3,5	;RP0=0, select bank0
  2878  024C  1303               	bcf	3,6	;RP1=0, select bank0
  2879  024D  1112               	bcf	18,2	;volatile
  2880  024E                     l5673:
  2881                           
  2882                           ;main.c: 132:         }
  2883  024E  1683               	bsf	3,5	;RP0=1, select bank3
  2884  024F  1703               	bsf	3,6	;RP1=1, select bank3
  2885  0250  019E               	clrf	main@delay2^(0+384)
  2886  0251  019F               	clrf	(main@delay2+1)^(0+384)
  2887  0252                     l5675:
  2888                           
  2889                           ;main.c: 133:         else if((control_flag == 0x04) && (key_level == 0x37) && (delay4++
      +                           == 20))
  2890  0252  01B0               	clrf	main@control_flag^(0+384)
  2891  0253  0AB0               	incf	main@control_flag^(0+384),f
  2892  0254  29BB               	goto	l5635
  2893  0255                     l5679:
  2894  0255  3004               	movlw	4
  2895  0256  0630               	xorwf	main@control_flag^(0+384),w
  2896  0257  1D03               	btfss	3,2
  2897  0258  2A5A               	goto	u5201
  2898  0259  2A5B               	goto	u5200
  2899  025A                     u5201:
  2900  025A  2A76               	goto	l5693
  2901  025B                     u5200:
  2902  025B                     l5681:
  2903  025B  302F               	movlw	47
  2904  025C  062C               	xorwf	main@key_level^(0+384),w
  2905  025D  1D03               	btfss	3,2
  2906  025E  2A60               	goto	u5211
  2907  025F  2A61               	goto	u5210
  2908  0260                     u5211:
  2909  0260  2A76               	goto	l5693
  2910  0261                     u5210:
  2911  0261                     l5683:
  2912  0261  3001               	movlw	1
  2913  0262  07A0               	addwf	main@delay3^(0+384),f
  2914  0263  1803               	skipnc
  2915  0264  0AA1               	incf	(main@delay3+1)^(0+384),f
  2916  0265  3000               	movlw	0
  2917  0266  07A1               	addwf	(main@delay3+1)^(0+384),f
  2918  0267  3015               	movlw	21
  2919  0268  0620               	xorwf	main@delay3^(0+384),w
  2920  0269  0421               	iorwf	(main@delay3+1)^(0+384),w
  2921  026A  1D03               	btfss	3,2
  2922  026B  2A6D               	goto	u5221
  2923  026C  2A6E               	goto	u5220
  2924  026D                     u5221:
  2925  026D  2A76               	goto	l5693
  2926  026E                     u5220:
  2927  026E                     l5685:
  2928                           
  2929                           ;main.c: 137:             control_flag = 0x03;;main.c: 140:         }
  2930  026E  1283               	bcf	3,5	;RP0=0, select bank0
  2931  026F  1303               	bcf	3,6	;RP1=0, select bank0
  2932  0270  1112               	bcf	18,2	;volatile
  2933  0271                     l5687:
  2934                           
  2935                           ;main.c: 141:         else if((control_flag == 0x07) && (key_level == 0x37) && (delay5++
      +                           == 20))
  2936  0271  1683               	bsf	3,5	;RP0=1, select bank3
  2937  0272  1703               	bsf	3,6	;RP1=1, select bank3
  2938  0273  01A0               	clrf	main@delay3^(0+384)
  2939  0274  01A1               	clrf	(main@delay3+1)^(0+384)
  2940  0275  2A52               	goto	l5675
  2941  0276                     l5693:
  2942  0276  3004               	movlw	4
  2943  0277  0630               	xorwf	main@control_flag^(0+384),w
  2944  0278  1D03               	btfss	3,2
  2945  0279  2A7B               	goto	u5231
  2946  027A  2A7C               	goto	u5230
  2947  027B                     u5231:
  2948  027B  2AA2               	goto	l5707
  2949  027C                     u5230:
  2950  027C                     l5695:
  2951  027C  3037               	movlw	55
  2952  027D  062C               	xorwf	main@key_level^(0+384),w
  2953  027E  1D03               	btfss	3,2
  2954  027F  2A81               	goto	u5241
  2955  0280  2A82               	goto	u5240
  2956  0281                     u5241:
  2957  0281  2AA2               	goto	l5707
  2958  0282                     u5240:
  2959  0282                     l5697:
  2960  0282  3001               	movlw	1
  2961  0283  07A2               	addwf	main@delay4^(0+384),f
  2962  0284  1803               	skipnc
  2963  0285  0AA3               	incf	(main@delay4+1)^(0+384),f
  2964  0286  3000               	movlw	0
  2965  0287  07A3               	addwf	(main@delay4+1)^(0+384),f
  2966  0288  3015               	movlw	21
  2967  0289  0622               	xorwf	main@delay4^(0+384),w
  2968  028A  0423               	iorwf	(main@delay4+1)^(0+384),w
  2969  028B  1D03               	btfss	3,2
  2970  028C  2A8E               	goto	u5251
  2971  028D  2A8F               	goto	u5250
  2972  028E                     u5251:
  2973  028E  2AA2               	goto	l5707
  2974  028F                     u5250:
  2975  028F                     l5699:
  2976                           
  2977                           ;main.c: 146:             reset_flag = 0x11;;main.c: 148:             write_ds1307(0x00,
      +                           dec2bcd(second));
  2978  028F  01A2               	clrf	main@delay4^(0+384)
  2979  0290  01A3               	clrf	(main@delay4+1)^(0+384)
  2980  0291                     l5701:
  2981                           
  2982                           ;main.c: 149:             write_ds1307(0x01, dec2bcd(minute));
  2983  0291  3003               	movlw	3
  2984  0292  1283               	bcf	3,5	;RP0=0, select bank0
  2985  0293  1303               	bcf	3,6	;RP1=0, select bank0
  2986  0294  00BA               	movwf	??_main
  2987  0295  083A               	movf	??_main,w
  2988  0296  1683               	bsf	3,5	;RP0=1, select bank3
  2989  0297  1703               	bsf	3,6	;RP1=1, select bank3
  2990  0298  00B0               	movwf	main@control_flag^(0+384)
  2991  0299                     l5703:
  2992                           
  2993                           ;main.c: 150:             write_ds1307(0x02, dec2bcd(hour));
  2994  0299  3011               	movlw	17
  2995  029A  1283               	bcf	3,5	;RP0=0, select bank0
  2996  029B  1303               	bcf	3,6	;RP1=0, select bank0
  2997  029C  00BA               	movwf	??_main
  2998  029D  083A               	movf	??_main,w
  2999  029E  1683               	bsf	3,5	;RP0=1, select bank3
  3000  029F  1703               	bsf	3,6	;RP1=1, select bank3
  3001  02A0  00AE               	movwf	main@reset_flag^(0+384)
  3002  02A1  29BB               	goto	l5635
  3003  02A2                     l5707:
  3004  02A2  3007               	movlw	7
  3005  02A3  0630               	xorwf	main@control_flag^(0+384),w
  3006  02A4  1D03               	btfss	3,2
  3007  02A5  2AA7               	goto	u5261
  3008  02A6  2AA8               	goto	u5260
  3009  02A7                     u5261:
  3010  02A7  2A31               	goto	l201
  3011  02A8                     u5260:
  3012  02A8                     l5709:
  3013  02A8  3037               	movlw	55
  3014  02A9  062C               	xorwf	main@key_level^(0+384),w
  3015  02AA  1D03               	btfss	3,2
  3016  02AB  2AAD               	goto	u5271
  3017  02AC  2AAE               	goto	u5270
  3018  02AD                     u5271:
  3019  02AD  2A31               	goto	l201
  3020  02AE                     u5270:
  3021  02AE                     l5711:
  3022  02AE  3001               	movlw	1
  3023  02AF  07A4               	addwf	main@delay5^(0+384),f
  3024  02B0  1803               	skipnc
  3025  02B1  0AA5               	incf	(main@delay5+1)^(0+384),f
  3026  02B2  3000               	movlw	0
  3027  02B3  07A5               	addwf	(main@delay5+1)^(0+384),f
  3028  02B4  3015               	movlw	21
  3029  02B5  0624               	xorwf	main@delay5^(0+384),w
  3030  02B6  0425               	iorwf	(main@delay5+1)^(0+384),w
  3031  02B7  1D03               	btfss	3,2
  3032  02B8  2ABA               	goto	u5281
  3033  02B9  2ABB               	goto	u5280
  3034  02BA                     u5281:
  3035  02BA  2A31               	goto	l201
  3036  02BB                     u5280:
  3037  02BB                     l5713:
  3038                           
  3039                           ;main.c: 154: ;main.c: 156:         if(speed > 99)
  3040  02BB  01A4               	clrf	main@delay5^(0+384)
  3041  02BC  01A5               	clrf	(main@delay5+1)^(0+384)
  3042  02BD                     l5715:
  3043                           
  3044                           ;main.c: 157:             speed = 99;
  3045  02BD  3003               	movlw	3
  3046  02BE  1283               	bcf	3,5	;RP0=0, select bank0
  3047  02BF  1303               	bcf	3,6	;RP1=0, select bank0
  3048  02C0  00BA               	movwf	??_main
  3049  02C1  083A               	movf	??_main,w
  3050  02C2  1683               	bsf	3,5	;RP0=1, select bank3
  3051  02C3  1703               	bsf	3,6	;RP1=1, select bank3
  3052  02C4  00B0               	movwf	main@control_flag^(0+384)
  3053  02C5                     l5717:
  3054                           
  3055                           ;main.c: 158: 
  3056  02C5  3011               	movlw	17
  3057  02C6  1283               	bcf	3,5	;RP0=0, select bank0
  3058  02C7  1303               	bcf	3,6	;RP1=0, select bank0
  3059  02C8  00BA               	movwf	??_main
  3060  02C9  083A               	movf	??_main,w
  3061  02CA  1683               	bsf	3,5	;RP0=1, select bank3
  3062  02CB  1703               	bsf	3,6	;RP1=1, select bank3
  3063  02CC  00AE               	movwf	main@reset_flag^(0+384)
  3064  02CD                     l5719:
  3065                           
  3066                           ;main.c: 160:         switch(control_flag)
  3067  02CD  1283               	bcf	3,5	;RP0=0, select bank0
  3068  02CE  1303               	bcf	3,6	;RP1=0, select bank0
  3069  02CF  0852               	movf	_second,w
  3070  02D0  160A  118A  246C  120A  118A  	fcall	_dec2bcd
  3071  02D5  1283               	bcf	3,5	;RP0=0, select bank0
  3072  02D6  1303               	bcf	3,6	;RP1=0, select bank0
  3073  02D7  00BA               	movwf	??_main
  3074  02D8  083A               	movf	??_main,w
  3075  02D9  00B5               	movwf	write_ds1307@data
  3076  02DA  3000               	movlw	0
  3077  02DB  160A  118A  2172  120A  118A  	fcall	_write_ds1307
  3078  02E0                     l5721:
  3079                           
  3080                           ;main.c: 161:         {
  3081  02E0  1283               	bcf	3,5	;RP0=0, select bank0
  3082  02E1  1303               	bcf	3,6	;RP1=0, select bank0
  3083  02E2  0851               	movf	_minute,w
  3084  02E3  160A  118A  246C  120A  118A  	fcall	_dec2bcd
  3085  02E8  1283               	bcf	3,5	;RP0=0, select bank0
  3086  02E9  1303               	bcf	3,6	;RP1=0, select bank0
  3087  02EA  00BA               	movwf	??_main
  3088  02EB  083A               	movf	??_main,w
  3089  02EC  00B5               	movwf	write_ds1307@data
  3090  02ED  3001               	movlw	1
  3091  02EE  160A  118A  2172  120A  118A  	fcall	_write_ds1307
  3092  02F3                     l5723:
  3093                           
  3094                           ;main.c: 162: 
  3095  02F3  1283               	bcf	3,5	;RP0=0, select bank0
  3096  02F4  1303               	bcf	3,6	;RP1=0, select bank0
  3097  02F5  0850               	movf	_hour,w
  3098  02F6  160A  118A  246C  120A  118A  	fcall	_dec2bcd
  3099  02FB  1283               	bcf	3,5	;RP0=0, select bank0
  3100  02FC  1303               	bcf	3,6	;RP1=0, select bank0
  3101  02FD  00BA               	movwf	??_main
  3102  02FE  083A               	movf	??_main,w
  3103  02FF  00B5               	movwf	write_ds1307@data
  3104  0300  3002               	movlw	2
  3105  0301  160A  118A  2172  120A  118A  	fcall	_write_ds1307
  3106  0306  29BB               	goto	l5635
  3107  0307                     l5727:
  3108                           
  3109                           ;main.c: 167:             }
  3110  0307  300A               	movlw	10
  3111  0308  1283               	bcf	3,5	;RP0=0, select bank0
  3112  0309  1303               	bcf	3,6	;RP1=0, select bank0
  3113  030A  00A2               	movwf	___lwdiv@divisor
  3114  030B  3000               	movlw	0
  3115  030C  00A3               	movwf	___lwdiv@divisor+1
  3116  030D  160A  158A  276E  120A  118A  	fcall	_read_adc
  3117  0312  0875               	movf	?_read_adc+1,w
  3118  0313  1283               	bcf	3,5	;RP0=0, select bank0
  3119  0314  1303               	bcf	3,6	;RP1=0, select bank0
  3120  0315  00A5               	movwf	___lwdiv@dividend+1
  3121  0316  0874               	movf	?_read_adc,w
  3122  0317  00A4               	movwf	___lwdiv@dividend
  3123  0318  160A  118A  24AD  120A  118A  	fcall	___lwdiv
  3124  031D  1283               	bcf	3,5	;RP0=0, select bank0
  3125  031E  1303               	bcf	3,6	;RP1=0, select bank0
  3126  031F  0822               	movf	?___lwdiv,w
  3127  0320  00BA               	movwf	??_main
  3128  0321  083A               	movf	??_main,w
  3129  0322  1683               	bsf	3,5	;RP0=1, select bank3
  3130  0323  1703               	bsf	3,6	;RP1=1, select bank3
  3131  0324  00AD               	movwf	main@speed^(0+384)
  3132  0325                     l5729:
  3133                           
  3134                           ;main.c: 168: 
  3135  0325  3064               	movlw	100
  3136  0326  022D               	subwf	main@speed^(0+384),w
  3137  0327  1C03               	skipc
  3138  0328  2B2A               	goto	u5291
  3139  0329  2B2B               	goto	u5290
  3140  032A                     u5291:
  3141  032A  2C2F               	goto	l5781
  3142  032B                     u5290:
  3143  032B                     l5731:
  3144                           
  3145                           ;main.c: 169:             case 0x02:
  3146  032B  3063               	movlw	99
  3147  032C  1283               	bcf	3,5	;RP0=0, select bank0
  3148  032D  1303               	bcf	3,6	;RP1=0, select bank0
  3149  032E  00BA               	movwf	??_main
  3150  032F  083A               	movf	??_main,w
  3151  0330  1683               	bsf	3,5	;RP0=1, select bank3
  3152  0331  1703               	bsf	3,6	;RP1=1, select bank3
  3153  0332  00AD               	movwf	main@speed^(0+384)
  3154  0333  2C2F               	goto	l5781
  3155  0334                     l5733:
  3156                           
  3157                           ;main.c: 176:                         TMR2ON = 0;;main.c: 177:                         c
      +                          lcd_write(0x0C, 0);
  3158  0334  1683               	bsf	3,5	;RP0=1, select bank3
  3159  0335  1703               	bsf	3,6	;RP1=1, select bank3
  3160  0336  082D               	movf	main@speed^(0+384),w
  3161  0337  1283               	bcf	3,5	;RP0=0, select bank0
  3162  0338  1303               	bcf	3,6	;RP1=0, select bank0
  3163  0339  00BA               	movwf	??_main
  3164  033A  083A               	movf	??_main,w
  3165  033B  00B2               	movwf	display_dash_screen@speed
  3166  033C  30A7               	movlw	(low (main@event| (0+256)))& (0+255)
  3167  033D  160A  118A  2605  120A  118A  	fcall	_display_dash_screen
  3168                           
  3169                           ;main.c: 178:                         _delay((unsigned long)((100)*(20000000/4000000.0))
      +                          );
  3170  0342  2C50               	goto	l5783
  3171  0343                     l220:	
  3172                           ;main.c: 184:                 };main.c: 185:                 break;
  3173                           
  3174                           
  3175                           ;main.c: 186:             }
  3176  0343  1683               	bsf	3,5	;RP0=1, select bank3
  3177  0344  1703               	bsf	3,6	;RP1=1, select bank3
  3178  0345  01B0               	clrf	main@control_flag^(0+384)
  3179  0346  0AB0               	incf	main@control_flag^(0+384),f
  3180                           
  3181                           ;main.c: 188:             case 0x03 :
  3182  0347  1283               	bcf	3,5	;RP0=0, select bank0
  3183  0348  1303               	bcf	3,6	;RP1=0, select bank0
  3184  0349  1112               	bcf	18,2	;volatile
  3185  034A                     l5735:
  3186                           
  3187                           ;main.c: 189: 
  3188  034A  01F4               	clrf	clcd_write@mode
  3189  034B  300C               	movlw	12
  3190  034C  160A  118A  2382  120A  118A  	fcall	_clcd_write
  3191  0351                     l5737:
  3192                           
  3193                           ;main.c: 190:                 TMR2ON = 1;
  3194  0351  30A5               	movlw	165
  3195  0352  1283               	bcf	3,5	;RP0=0, select bank0
  3196  0353  1303               	bcf	3,6	;RP1=0, select bank0
  3197  0354  00BA               	movwf	??_main
  3198  0355                     u5347:
  3199  0355  0BBA               	decfsz	??_main,f
  3200  0356  2B55               	goto	u5347
  3201  0357  2B58               	nop2
  3202                           
  3203                           ;main.c: 191:                 clcd_write(0x0C, 0);
  3204  0358  2C50               	goto	l5783
  3205  0359                     l5739:
  3206                           
  3207                           ;main.c: 193:                 menu_pos = login_menu(reset_flag, key);
  3208  0359  3003               	movlw	3
  3209  035A  1283               	bcf	3,5	;RP0=0, select bank0
  3210  035B  1303               	bcf	3,6	;RP1=0, select bank0
  3211  035C  00BA               	movwf	??_main
  3212  035D  083A               	movf	??_main,w
  3213  035E  1683               	bsf	3,5	;RP0=1, select bank3
  3214  035F  1703               	bsf	3,6	;RP1=1, select bank3
  3215  0360  00B0               	movwf	main@control_flag^(0+384)
  3216                           
  3217                           ;main.c: 194:                 if(menu_pos == 0x22)
  3218  0361  3011               	movlw	17
  3219  0362  1283               	bcf	3,5	;RP0=0, select bank0
  3220  0363  1303               	bcf	3,6	;RP1=0, select bank0
  3221  0364  00BA               	movwf	??_main
  3222  0365  083A               	movf	??_main,w
  3223  0366  1683               	bsf	3,5	;RP0=1, select bank3
  3224  0367  1703               	bsf	3,6	;RP1=1, select bank3
  3225  0368  00AE               	movwf	main@reset_flag^(0+384)
  3226                           
  3227                           ;main.c: 195:                 {
  3228  0369  2896               	goto	l5577
  3229  036A                     l5743:
  3230  036A  1683               	bsf	3,5	;RP0=1, select bank3
  3231  036B  1703               	bsf	3,6	;RP1=1, select bank3
  3232  036C  082F               	movf	main@key^(0+384),w
  3233  036D  1283               	bcf	3,5	;RP0=0, select bank0
  3234  036E  1303               	bcf	3,6	;RP1=0, select bank0
  3235  036F  00BA               	movwf	??_main
  3236  0370  083A               	movf	??_main,w
  3237  0371  00B0               	movwf	login@key
  3238  0372  1683               	bsf	3,5	;RP0=1, select bank3
  3239  0373  1703               	bsf	3,6	;RP1=1, select bank3
  3240  0374  082E               	movf	main@reset_flag^(0+384),w
  3241  0375  120A  158A  2288  120A  118A  	fcall	_login
  3242  037A  1283               	bcf	3,5	;RP0=0, select bank0
  3243  037B  1303               	bcf	3,6	;RP1=0, select bank0
  3244  037C  00BB               	movwf	??_main+1
  3245  037D  01BC               	clrf	??_main+2
  3246                           
  3247                           ; Switch on 2 bytes has been partitioned into a top level switch of size 1, and 1 sub-sw
      +                          itches
  3248                           ; Switch size 1, requested type "simple"
  3249                           ; Number of cases is 1, Range of values is 0 to 0
  3250                           ; switch strategies available:
  3251                           ; Name         Instructions Cycles
  3252                           ; simple_byte            4     3 (average)
  3253                           ; direct_byte           11     8 (fixed)
  3254                           ; jumptable            260     6 (fixed)
  3255                           ;	Chosen strategy is simple_byte
  3256  037E  083C               	movf	??_main+2,w
  3257  037F  3A00               	xorlw	0	; case 0
  3258  0380  1903               	skipnz
  3259  0381  2B83               	goto	l5979
  3260  0382  2C50               	goto	l5783
  3261  0383                     l5979:
  3262                           
  3263                           ; Switch size 1, requested type "simple"
  3264                           ; Number of cases is 2, Range of values is 33 to 34
  3265                           ; switch strategies available:
  3266                           ; Name         Instructions Cycles
  3267                           ; simple_byte            7     4 (average)
  3268                           ; direct_byte           17    11 (fixed)
  3269                           ; jumptable            263     9 (fixed)
  3270                           ;	Chosen strategy is simple_byte
  3271  0383  083B               	movf	??_main+1,w
  3272  0384  3A21               	xorlw	33	; case 33
  3273  0385  1903               	skipnz
  3274  0386  2B59               	goto	l5739
  3275  0387  3A03               	xorlw	3	; case 34
  3276  0388  1903               	skipnz
  3277  0389  2B43               	goto	l220
  3278  038A  2C50               	goto	l5783
  3279  038B                     l224:	
  3280                           ;main.c: 198:                 };main.c: 200: 
  3281                           
  3282                           
  3283                           ;main.c: 202: 
  3284  038B  1512               	bsf	18,2	;volatile
  3285  038C                     l5745:
  3286                           
  3287                           ;main.c: 203:                 TMR2ON = 0;
  3288  038C  01F4               	clrf	clcd_write@mode
  3289  038D  300C               	movlw	12
  3290  038E  160A  118A  2382  120A  118A  	fcall	_clcd_write
  3291  0393                     l5747:
  3292                           
  3293                           ;main.c: 204:                 clcd_write(0x0C, 0);
  3294  0393  30A5               	movlw	165
  3295  0394  1283               	bcf	3,5	;RP0=0, select bank0
  3296  0395  1303               	bcf	3,6	;RP1=0, select bank0
  3297  0396  00BA               	movwf	??_main
  3298  0397                     u5357:
  3299  0397  0BBA               	decfsz	??_main,f
  3300  0398  2B97               	goto	u5357
  3301  0399  2B9A               	nop2
  3302  039A                     l5749:
  3303                           
  3304                           ;main.c: 205:                 _delay((unsigned long)((100)*(20000000/4000000.0)));
  3305  039A  1683               	bsf	3,5	;RP0=1, select bank3
  3306  039B  1703               	bsf	3,6	;RP1=1, select bank3
  3307  039C  082F               	movf	main@key^(0+384),w
  3308  039D  1283               	bcf	3,5	;RP0=0, select bank0
  3309  039E  1303               	bcf	3,6	;RP1=0, select bank0
  3310  039F  00BA               	movwf	??_main
  3311  03A0  083A               	movf	??_main,w
  3312  03A1  00B0               	movwf	login_menu@key
  3313  03A2  1683               	bsf	3,5	;RP0=1, select bank3
  3314  03A3  1703               	bsf	3,6	;RP1=1, select bank3
  3315  03A4  082E               	movf	main@reset_flag^(0+384),w
  3316  03A5  120A  158A  2049  120A  118A  	fcall	_login_menu
  3317  03AA  1283               	bcf	3,5	;RP0=0, select bank0
  3318  03AB  1303               	bcf	3,6	;RP1=0, select bank0
  3319  03AC  00BB               	movwf	??_main+1
  3320  03AD  083B               	movf	??_main+1,w
  3321  03AE  1683               	bsf	3,5	;RP0=1, select bank3
  3322  03AF  1703               	bsf	3,6	;RP1=1, select bank3
  3323  03B0  00A6               	movwf	main@menu_pos^(0+384)
  3324  03B1                     l5751:
  3325                           
  3326                           ;main.c: 206:                 view_log(reset_flag, key);
  3327  03B1  3022               	movlw	34
  3328  03B2  0626               	xorwf	main@menu_pos^(0+384),w
  3329  03B3  1D03               	btfss	3,2
  3330  03B4  2BB6               	goto	u5301
  3331  03B5  2BB7               	goto	u5300
  3332  03B6                     u5301:
  3333  03B6  2C50               	goto	l5783
  3334  03B7                     u5300:
  3335  03B7                     l5753:
  3336                           
  3337                           ;main.c: 207: ;main.c: 208:                 break;
  3338  03B7  01B0               	clrf	main@control_flag^(0+384)
  3339  03B8  0AB0               	incf	main@control_flag^(0+384),f
  3340  03B9                     l5755:
  3341                           
  3342                           ;main.c: 209: 
  3343  03B9  160A  158A  2749  120A  118A  	fcall	_clear_screen
  3344  03BE  2C50               	goto	l5783
  3345  03BF                     l226:	
  3346                           ;main.c: 213:                 set_time(reset_flag, key);
  3347                           
  3348                           
  3349                           ;main.c: 215: 
  3350  03BF  1112               	bcf	18,2	;volatile
  3351  03C0                     l5757:
  3352                           
  3353                           ;main.c: 216:             case 0x06 :
  3354  03C0  01F4               	clrf	clcd_write@mode
  3355  03C1  300C               	movlw	12
  3356  03C2  160A  118A  2382  120A  118A  	fcall	_clcd_write
  3357  03C7                     l5759:
  3358                           
  3359                           ;main.c: 217: 
  3360  03C7  30A5               	movlw	165
  3361  03C8  1283               	bcf	3,5	;RP0=0, select bank0
  3362  03C9  1303               	bcf	3,6	;RP1=0, select bank0
  3363  03CA  00BA               	movwf	??_main
  3364  03CB                     u5367:
  3365  03CB  0BBA               	decfsz	??_main,f
  3366  03CC  2BCB               	goto	u5367
  3367  03CD  2BCE               	nop2
  3368  03CE                     l5761:
  3369                           
  3370                           ;main.c: 218:                 TMR2ON = 0;
  3371  03CE  1683               	bsf	3,5	;RP0=1, select bank3
  3372  03CF  1703               	bsf	3,6	;RP1=1, select bank3
  3373  03D0  082F               	movf	main@key^(0+384),w
  3374  03D1  1283               	bcf	3,5	;RP0=0, select bank0
  3375  03D2  1303               	bcf	3,6	;RP1=0, select bank0
  3376  03D3  00BA               	movwf	??_main
  3377  03D4  083A               	movf	??_main,w
  3378  03D5  00B0               	movwf	view_log@key
  3379  03D6  1683               	bsf	3,5	;RP0=1, select bank3
  3380  03D7  1703               	bsf	3,6	;RP1=1, select bank3
  3381  03D8  082E               	movf	main@reset_flag^(0+384),w
  3382  03D9  120A  158A  243E  120A  118A  	fcall	_view_log
  3383                           
  3384                           ;main.c: 220:                 {
  3385  03DE  2C50               	goto	l5783
  3386  03DF                     l227:	
  3387                           ;main.c: 222:                     reset_flag = 0x11;
  3388                           
  3389                           
  3390                           ;main.c: 224:                 }
  3391  03DF  1112               	bcf	18,2	;volatile
  3392  03E0                     l5763:
  3393                           
  3394                           ;main.c: 225:                 break;
  3395  03E0  1683               	bsf	3,5	;RP0=1, select bank3
  3396  03E1  1703               	bsf	3,6	;RP1=1, select bank3
  3397  03E2  082F               	movf	main@key^(0+384),w
  3398  03E3  1283               	bcf	3,5	;RP0=0, select bank0
  3399  03E4  1303               	bcf	3,6	;RP1=0, select bank0
  3400  03E5  00BA               	movwf	??_main
  3401  03E6  083A               	movf	??_main,w
  3402  03E7  00B0               	movwf	set_time@key
  3403  03E8  1683               	bsf	3,5	;RP0=1, select bank3
  3404  03E9  1703               	bsf	3,6	;RP1=1, select bank3
  3405  03EA  082E               	movf	main@reset_flag^(0+384),w
  3406  03EB  120A  118A  245C  120A  118A  	fcall	_set_time
  3407                           
  3408                           ;main.c: 226: 
  3409  03F0  2C50               	goto	l5783
  3410  03F1                     l228:	
  3411                           ;main.c: 228: 
  3412                           
  3413                           
  3414                           ;main.c: 230:                 switch(change_password(reset_flag, key))
  3415  03F1  1112               	bcf	18,2	;volatile
  3416  03F2                     l5765:
  3417                           
  3418                           ;main.c: 231:                 {
  3419  03F2  1683               	bsf	3,5	;RP0=1, select bank3
  3420  03F3  1703               	bsf	3,6	;RP1=1, select bank3
  3421  03F4  082E               	movf	main@reset_flag^(0+384),w
  3422  03F5  120A  158A  211C  120A  118A  	fcall	_download_log
  3423  03FA  3A22               	xorlw	34
  3424  03FB  1D03               	skipz
  3425  03FC  2BFE               	goto	u5311
  3426  03FD  2BFF               	goto	u5310
  3427  03FE                     u5311:
  3428  03FE  2C50               	goto	l5783
  3429  03FF                     u5310:
  3430  03FF  2B59               	goto	l5739
  3431  0400                     l230:	
  3432                           ;main.c: 239:                         reset_flag = 0x11;
  3433                           
  3434                           
  3435                           ;main.c: 241:                 }
  3436  0400  1112               	bcf	18,2	;volatile
  3437                           
  3438                           ;main.c: 242:                 break;
  3439  0401  2C0E               	goto	l5777
  3440  0402                     l232:	
  3441                           ;main.c: 243: ;main.c: 244:         }
  3442                           
  3443                           
  3444                           ;main.c: 245:         reset_flag = 0x09;
  3445  0402  1683               	bsf	3,5	;RP0=1, select bank3
  3446  0403  1703               	bsf	3,6	;RP1=1, select bank3
  3447  0404  01B0               	clrf	main@control_flag^(0+384)
  3448  0405  0AB0               	incf	main@control_flag^(0+384),f
  3449  0406                     l5769:
  3450                           
  3451                           ;main.c: 246:     }
  3452  0406  01F4               	clrf	clcd_write@mode
  3453  0407  300C               	movlw	12
  3454  0408  160A  118A  2382  120A  118A  	fcall	_clcd_write
  3455  040D  2B51               	goto	l5737
  3456  040E                     l5777:
  3457  040E  1683               	bsf	3,5	;RP0=1, select bank3
  3458  040F  1703               	bsf	3,6	;RP1=1, select bank3
  3459  0410  082F               	movf	main@key^(0+384),w
  3460  0411  1283               	bcf	3,5	;RP0=0, select bank0
  3461  0412  1303               	bcf	3,6	;RP1=0, select bank0
  3462  0413  00BA               	movwf	??_main
  3463  0414  083A               	movf	??_main,w
  3464  0415  00B0               	movwf	change_password@key
  3465  0416  1683               	bsf	3,5	;RP0=1, select bank3
  3466  0417  1703               	bsf	3,6	;RP1=1, select bank3
  3467  0418  082E               	movf	main@reset_flag^(0+384),w
  3468  0419  120A  158A  2601  120A  118A  	fcall	_change_password
  3469  041E  1283               	bcf	3,5	;RP0=0, select bank0
  3470  041F  1303               	bcf	3,6	;RP1=0, select bank0
  3471  0420  00BB               	movwf	??_main+1
  3472  0421  01BC               	clrf	??_main+2
  3473                           
  3474                           ; Switch on 2 bytes has been partitioned into a top level switch of size 1, and 1 sub-sw
      +                          itches
  3475                           ; Switch size 1, requested type "simple"
  3476                           ; Number of cases is 1, Range of values is 0 to 0
  3477                           ; switch strategies available:
  3478                           ; Name         Instructions Cycles
  3479                           ; simple_byte            4     3 (average)
  3480                           ; direct_byte           11     8 (fixed)
  3481                           ; jumptable            260     6 (fixed)
  3482                           ;	Chosen strategy is simple_byte
  3483  0422  083C               	movf	??_main+2,w
  3484  0423  3A00               	xorlw	0	; case 0
  3485  0424  1903               	skipnz
  3486  0425  2C27               	goto	l5981
  3487  0426  2C50               	goto	l5783
  3488  0427                     l5981:
  3489                           
  3490                           ; Switch size 1, requested type "simple"
  3491                           ; Number of cases is 2, Range of values is 35 to 36
  3492                           ; switch strategies available:
  3493                           ; Name         Instructions Cycles
  3494                           ; simple_byte            7     4 (average)
  3495                           ; direct_byte           17    11 (fixed)
  3496                           ; jumptable            263     9 (fixed)
  3497                           ;	Chosen strategy is simple_byte
  3498  0427  083B               	movf	??_main+1,w
  3499  0428  3A23               	xorlw	35	; case 35
  3500  0429  1903               	skipnz
  3501  042A  2C02               	goto	l232
  3502  042B  3A07               	xorlw	7	; case 36
  3503  042C  1903               	skipnz
  3504  042D  2B59               	goto	l5739
  3505  042E  2C50               	goto	l5783
  3506  042F                     l5781:
  3507  042F  0830               	movf	main@control_flag^(0+384),w
  3508  0430  1283               	bcf	3,5	;RP0=0, select bank0
  3509  0431  1303               	bcf	3,6	;RP1=0, select bank0
  3510  0432  00BA               	movwf	??_main
  3511  0433  01BB               	clrf	??_main+1
  3512                           
  3513                           ; Switch on 2 bytes has been partitioned into a top level switch of size 1, and 1 sub-sw
      +                          itches
  3514                           ; Switch size 1, requested type "simple"
  3515                           ; Number of cases is 1, Range of values is 0 to 0
  3516                           ; switch strategies available:
  3517                           ; Name         Instructions Cycles
  3518                           ; simple_byte            4     3 (average)
  3519                           ; direct_byte           11     8 (fixed)
  3520                           ; jumptable            260     6 (fixed)
  3521                           ;	Chosen strategy is simple_byte
  3522  0434  083B               	movf	??_main+1,w
  3523  0435  3A00               	xorlw	0	; case 0
  3524  0436  1903               	skipnz
  3525  0437  2C39               	goto	l5983
  3526  0438  2C50               	goto	l5783
  3527  0439                     l5983:
  3528                           
  3529                           ; Switch size 1, requested type "simple"
  3530                           ; Number of cases is 7, Range of values is 1 to 8
  3531                           ; switch strategies available:
  3532                           ; Name         Instructions Cycles
  3533                           ; simple_byte           22    12 (average)
  3534                           ; direct_byte           35    11 (fixed)
  3535                           ; jumptable            263     9 (fixed)
  3536                           ;	Chosen strategy is simple_byte
  3537  0439  083A               	movf	??_main,w
  3538  043A  3A01               	xorlw	1	; case 1
  3539  043B  1903               	skipnz
  3540  043C  2B34               	goto	l5733
  3541  043D  3A03               	xorlw	3	; case 2
  3542  043E  1903               	skipnz
  3543  043F  2B6A               	goto	l5743
  3544  0440  3A01               	xorlw	1	; case 3
  3545  0441  1903               	skipnz
  3546  0442  2B8B               	goto	l224
  3547  0443  3A07               	xorlw	7	; case 4
  3548  0444  1903               	skipnz
  3549  0445  2BBF               	goto	l226
  3550  0446  3A02               	xorlw	2	; case 6
  3551  0447  1903               	skipnz
  3552  0448  2BF1               	goto	l228
  3553  0449  3A01               	xorlw	1	; case 7
  3554  044A  1903               	skipnz
  3555  044B  2BDF               	goto	l227
  3556  044C  3A0F               	xorlw	15	; case 8
  3557  044D  1903               	skipnz
  3558  044E  2C00               	goto	l230
  3559  044F  2C50               	goto	l5783
  3560  0450                     l5783:
  3561  0450  3009               	movlw	9
  3562  0451  1283               	bcf	3,5	;RP0=0, select bank0
  3563  0452  1303               	bcf	3,6	;RP1=0, select bank0
  3564  0453  00BA               	movwf	??_main
  3565  0454  083A               	movf	??_main,w
  3566  0455  1683               	bsf	3,5	;RP0=1, select bank3
  3567  0456  1703               	bsf	3,6	;RP1=1, select bank3
  3568  0457  00AE               	movwf	main@reset_flag^(0+384)
  3569  0458  2896               	goto	l5577
  3570  0459  120A  118A  2810   	ljmp	start
  3571  045C                     __end_of_main:
  3572                           
  3573                           	psect	text1
  3574  0C3E                     __ptext1:	
  3575 ;; *************** function _view_log *****************
  3576 ;; Defined at:
  3577 ;;		line 232 in file "car_black_box_def.c"
  3578 ;; Parameters:    Size  Location     Type
  3579 ;;  reset_flag      1    wreg     unsigned char 
  3580 ;;  key             1   16[BANK0 ] unsigned char 
  3581 ;; Auto vars:     Size  Location     Type
  3582 ;;  reset_flag      1   19[BANK0 ] unsigned char 
  3583 ;;  ch              1   21[BANK0 ] unsigned char 
  3584 ;;  i               1   20[BANK0 ] unsigned char 
  3585 ;; Return value:  Size  Location     Type
  3586 ;;                  1    wreg      void 
  3587 ;; Registers used:
  3588 ;;		wreg, fsr0l, fsr0h, status,2, status,0, btemp+1, pclath, cstack
  3589 ;; Tracked objects:
  3590 ;;		On entry : 0/0
  3591 ;;		On exit  : 0/0
  3592 ;;		Unchanged: 0/0
  3593 ;; Data sizes:     COMMON   BANK0   BANK1   BANK3   BANK2
  3594 ;;      Params:         0       1       0       0       0
  3595 ;;      Locals:         0       3       0       0       0
  3596 ;;      Temps:          0       2       0       0       0
  3597 ;;      Totals:         0       6       0       0       0
  3598 ;;Total ram usage:        6 bytes
  3599 ;; Hardware stack levels used: 1
  3600 ;; Hardware stack levels required when called: 5
  3601 ;; This function calls:
  3602 ;;		___bmul
  3603 ;;		_clcd_print
  3604 ;;		_clcd_putch
  3605 ;;		_clear_screen
  3606 ;;		_read_EEPROM
  3607 ;; This function is called by:
  3608 ;;		_main
  3609 ;; This function uses a non-reentrant model
  3610 ;;
  3611                           
  3612                           
  3613                           ;psect for function _view_log
  3614  0C3E                     _view_log:
  3615                           
  3616                           ;incstack = 0
  3617                           ; Regs used in _view_log: [wreg-fsr0h+status,2+status,0+btemp+1+pclath+cstack]
  3618                           ;view_log@reset_flag stored from wreg
  3619  0C3E  1283               	bcf	3,5	;RP0=0, select bank0
  3620  0C3F  1303               	bcf	3,6	;RP1=0, select bank0
  3621  0C40  00B3               	movwf	view_log@reset_flag
  3622  0C41                     l4677:
  3623                           
  3624                           ;car_black_box_def.c: 232: void view_log(unsigned char reset_flag, unsigned char key);ca
      +                          r_black_box_def.c: 233: {;car_black_box_def.c: 234:     char ch, i;;car_black_box_def.c:
      +                           235:     static char log_pos;;car_black_box_def.c: 236:     if(pos == -1)
  3625  0C41  0A77               	incf	_pos,w
  3626  0C42  1D03               	skipz
  3627  0C43  2C48               	goto	u4161
  3628  0C44  0A78               	incf	_pos+1,w
  3629  0C45  1D03               	btfss	3,2
  3630  0C46  2C48               	goto	u4161
  3631  0C47  2C49               	goto	u4160
  3632  0C48                     u4161:
  3633  0C48  2C57               	goto	l4681
  3634  0C49                     u4160:
  3635  0C49                     l4679:
  3636                           
  3637                           ;car_black_box_def.c: 237:     {;car_black_box_def.c: 238:         clcd_print("No Log Ex
      +                          ist", (0x80 + 1));
  3638  0C49  3011               	movlw	low (STR_22| (0+32768))
  3639  0C4A  00A1               	movwf	clcd_print@str
  3640  0C4B  3091               	movlw	high (STR_22| (0+32768))
  3641  0C4C  00A2               	movwf	clcd_print@str+1
  3642  0C4D  3081               	movlw	129
  3643  0C4E  00B1               	movwf	??_view_log
  3644  0C4F  0831               	movf	??_view_log,w
  3645  0C50  00A3               	movwf	clcd_print@addr
  3646  0C51  160A  118A  22B1  120A  158A  	fcall	_clcd_print
  3647                           
  3648                           ;car_black_box_def.c: 239:     }
  3649  0C56  2E00               	goto	l414
  3650  0C57                     l4681:
  3651                           
  3652                           ;car_black_box_def.c: 241:     {;car_black_box_def.c: 242:         if(reset_flag == 0x13
      +                          )
  3653  0C57  3013               	movlw	19
  3654  0C58  0633               	xorwf	view_log@reset_flag,w
  3655  0C59  1D03               	btfss	3,2
  3656  0C5A  2C5C               	goto	u4171
  3657  0C5B  2C5D               	goto	u4170
  3658  0C5C                     u4171:
  3659  0C5C  2C63               	goto	l4687
  3660  0C5D                     u4170:
  3661  0C5D                     l4683:
  3662                           
  3663                           ;car_black_box_def.c: 243:         {;car_black_box_def.c: 244:             log_pos = 0;
  3664  0C5D  01CA               	clrf	view_log@log_pos
  3665  0C5E                     l4685:
  3666                           
  3667                           ;car_black_box_def.c: 245:             clear_screen();
  3668  0C5E  160A  158A  2749  120A  158A  	fcall	_clear_screen
  3669  0C63                     l4687:
  3670                           
  3671                           ;car_black_box_def.c: 247:         if(key == 0x2F && (log_pos < (access-1)))
  3672  0C63  302F               	movlw	47
  3673  0C64  1283               	bcf	3,5	;RP0=0, select bank0
  3674  0C65  1303               	bcf	3,6	;RP1=0, select bank0
  3675  0C66  0630               	xorwf	view_log@key,w
  3676  0C67  1D03               	btfss	3,2
  3677  0C68  2C6A               	goto	u4181
  3678  0C69  2C6B               	goto	u4180
  3679  0C6A                     u4181:
  3680  0C6A  2C89               	goto	l4695
  3681  0C6B                     u4180:
  3682  0C6B                     l4689:
  3683  0C6B  0879               	movf	_access,w
  3684  0C6C  3EFF               	addlw	255
  3685  0C6D  00B1               	movwf	??_view_log
  3686  0C6E  30FF               	movlw	255
  3687  0C6F  1803               	skipnc
  3688  0C70  3000               	movlw	0
  3689  0C71  00B2               	movwf	??_view_log+1
  3690  0C72  0832               	movf	??_view_log+1,w
  3691  0C73  3A80               	xorlw	128
  3692  0C74  3C80               	sublw	128
  3693  0C75  1D03               	skipz
  3694  0C76  2C79               	goto	u4195
  3695  0C77  0831               	movf	??_view_log,w
  3696  0C78  024A               	subwf	view_log@log_pos,w
  3697  0C79                     u4195:
  3698  0C79  1803               	skipnc
  3699  0C7A  2C7C               	goto	u4191
  3700  0C7B  2C7D               	goto	u4190
  3701  0C7C                     u4191:
  3702  0C7C  2C89               	goto	l4695
  3703  0C7D                     u4190:
  3704  0C7D                     l4691:
  3705                           
  3706                           ;car_black_box_def.c: 248:         {;car_black_box_def.c: 249:             log_pos++;
  3707  0C7D  3001               	movlw	1
  3708  0C7E  1283               	bcf	3,5	;RP0=0, select bank0
  3709  0C7F  1303               	bcf	3,6	;RP1=0, select bank0
  3710  0C80  00B1               	movwf	??_view_log
  3711  0C81  0831               	movf	??_view_log,w
  3712  0C82  07CA               	addwf	view_log@log_pos,f
  3713  0C83                     l4693:
  3714                           
  3715                           ;car_black_box_def.c: 250:             clear_screen();
  3716  0C83  160A  158A  2749  120A  158A  	fcall	_clear_screen
  3717                           
  3718                           ;car_black_box_def.c: 251:         }
  3719  0C88  2CAF               	goto	l4711
  3720  0C89                     l4695:
  3721  0C89  3037               	movlw	55
  3722  0C8A  1283               	bcf	3,5	;RP0=0, select bank0
  3723  0C8B  1303               	bcf	3,6	;RP1=0, select bank0
  3724  0C8C  0630               	xorwf	view_log@key,w
  3725  0C8D  1D03               	btfss	3,2
  3726  0C8E  2C90               	goto	u4201
  3727  0C8F  2C91               	goto	u4200
  3728  0C90                     u4201:
  3729  0C90  2C99               	goto	l4703
  3730  0C91                     u4200:
  3731  0C91                     l4697:
  3732  0C91  084A               	movf	view_log@log_pos,w
  3733  0C92  1903               	btfsc	3,2
  3734  0C93  2C95               	goto	u4211
  3735  0C94  2C96               	goto	u4210
  3736  0C95                     u4211:
  3737  0C95  2C99               	goto	l4703
  3738  0C96                     u4210:
  3739  0C96                     l4699:
  3740                           
  3741                           ;car_black_box_def.c: 253:         {;car_black_box_def.c: 254:             log_pos--;
  3742  0C96  3001               	movlw	1
  3743  0C97  02CA               	subwf	view_log@log_pos,f
  3744  0C98  2C83               	goto	l4693
  3745  0C99                     l4703:
  3746  0C99  302F               	movlw	47
  3747  0C9A  0630               	xorwf	view_log@key,w
  3748  0C9B  1D03               	btfss	3,2
  3749  0C9C  2C9E               	goto	u4221
  3750  0C9D  2C9F               	goto	u4220
  3751  0C9E                     u4221:
  3752  0C9E  2CAF               	goto	l4711
  3753  0C9F                     u4220:
  3754  0C9F                     l4705:
  3755  0C9F  0879               	movf	_access,w
  3756  0CA0  3EFF               	addlw	255
  3757  0CA1  00B1               	movwf	??_view_log
  3758  0CA2  30FF               	movlw	255
  3759  0CA3  1803               	skipnc
  3760  0CA4  3000               	movlw	0
  3761  0CA5  00B2               	movwf	??_view_log+1
  3762  0CA6  084A               	movf	view_log@log_pos,w
  3763  0CA7  0631               	xorwf	??_view_log,w
  3764  0CA8  0432               	iorwf	??_view_log+1,w
  3765  0CA9  1D03               	skipz
  3766  0CAA  2CAC               	goto	u4231
  3767  0CAB  2CAD               	goto	u4230
  3768  0CAC                     u4231:
  3769  0CAC  2CAF               	goto	l4711
  3770  0CAD                     u4230:
  3771  0CAD                     l4707:
  3772                           
  3773                           ;car_black_box_def.c: 258:         {;car_black_box_def.c: 259:             log_pos = 0;
  3774  0CAD  01CA               	clrf	view_log@log_pos
  3775  0CAE  2C83               	goto	l4693
  3776  0CAF                     l4711:
  3777                           
  3778                           ;car_black_box_def.c: 262:         if(log_pos < access)
  3779  0CAF  0879               	movf	_access,w
  3780  0CB0  1283               	bcf	3,5	;RP0=0, select bank0
  3781  0CB1  1303               	bcf	3,6	;RP1=0, select bank0
  3782  0CB2  024A               	subwf	view_log@log_pos,w
  3783  0CB3  1803               	skipnc
  3784  0CB4  2CB6               	goto	u4241
  3785  0CB5  2CB7               	goto	u4240
  3786  0CB6                     u4241:
  3787  0CB6  2E00               	goto	l414
  3788  0CB7                     u4240:
  3789  0CB7                     l4713:
  3790                           
  3791                           ;car_black_box_def.c: 263:         {;car_black_box_def.c: 264:             clcd_print("#
      +                           TIME     EV SP", (0x80 + 0));
  3792  0CB7  3047               	movlw	low (STR_23| (0+32768))
  3793  0CB8  00A1               	movwf	clcd_print@str
  3794  0CB9  3090               	movlw	high (STR_23| (0+32768))
  3795  0CBA  00A2               	movwf	clcd_print@str+1
  3796  0CBB  3080               	movlw	128
  3797  0CBC  00B1               	movwf	??_view_log
  3798  0CBD  0831               	movf	??_view_log,w
  3799  0CBE  00A3               	movwf	clcd_print@addr
  3800  0CBF  160A  118A  22B1  120A  158A  	fcall	_clcd_print
  3801  0CC4                     l4715:
  3802                           
  3803                           ;car_black_box_def.c: 265:             i = log_pos * 10 + 5;
  3804  0CC4  300A               	movlw	10
  3805  0CC5  1283               	bcf	3,5	;RP0=0, select bank0
  3806  0CC6  1303               	bcf	3,6	;RP1=0, select bank0
  3807  0CC7  00B1               	movwf	??_view_log
  3808  0CC8  0831               	movf	??_view_log,w
  3809  0CC9  00F4               	movwf	___bmul@multiplicand
  3810  0CCA  084A               	movf	view_log@log_pos,w
  3811  0CCB  160A  158A  2797  120A  158A  	fcall	___bmul
  3812  0CD0  3E05               	addlw	5
  3813  0CD1  1283               	bcf	3,5	;RP0=0, select bank0
  3814  0CD2  1303               	bcf	3,6	;RP1=0, select bank0
  3815  0CD3  00B2               	movwf	??_view_log+1
  3816  0CD4  0832               	movf	??_view_log+1,w
  3817  0CD5  00B4               	movwf	view_log@i
  3818  0CD6                     l4717:
  3819                           
  3820                           ;car_black_box_def.c: 266:             clcd_putch(log_pos + '0', (0xC0 + 0));
  3821  0CD6  30C0               	movlw	192
  3822  0CD7  00B1               	movwf	??_view_log
  3823  0CD8  0831               	movf	??_view_log,w
  3824  0CD9  00AE               	movwf	clcd_putch@addr
  3825  0CDA  084A               	movf	view_log@log_pos,w
  3826  0CDB  3E30               	addlw	48
  3827  0CDC  160A  158A  2782  120A  158A  	fcall	_clcd_putch
  3828  0CE1                     l4719:
  3829                           
  3830                           ;car_black_box_def.c: 267:             ch = read_EEPROM(i);
  3831  0CE1  1283               	bcf	3,5	;RP0=0, select bank0
  3832  0CE2  1303               	bcf	3,6	;RP1=0, select bank0
  3833  0CE3  0834               	movf	view_log@i,w
  3834  0CE4  160A  118A  234D  120A  158A  	fcall	_read_EEPROM
  3835  0CE9  1283               	bcf	3,5	;RP0=0, select bank0
  3836  0CEA  1303               	bcf	3,6	;RP1=0, select bank0
  3837  0CEB  00B1               	movwf	??_view_log
  3838  0CEC  0831               	movf	??_view_log,w
  3839  0CED  00B5               	movwf	view_log@ch
  3840  0CEE                     l4721:
  3841                           
  3842                           ;car_black_box_def.c: 268:             clcd_putch(ch, (0xC0 + 2));
  3843  0CEE  30C2               	movlw	194
  3844  0CEF  00B1               	movwf	??_view_log
  3845  0CF0  0831               	movf	??_view_log,w
  3846  0CF1  00AE               	movwf	clcd_putch@addr
  3847  0CF2  0835               	movf	view_log@ch,w
  3848  0CF3  160A  158A  2782  120A  158A  	fcall	_clcd_putch
  3849  0CF8                     l4723:
  3850                           
  3851                           ;car_black_box_def.c: 269:             ch = read_EEPROM(i+1);
  3852  0CF8  1283               	bcf	3,5	;RP0=0, select bank0
  3853  0CF9  1303               	bcf	3,6	;RP1=0, select bank0
  3854  0CFA  0834               	movf	view_log@i,w
  3855  0CFB  3E01               	addlw	1
  3856  0CFC  160A  118A  234D  120A  158A  	fcall	_read_EEPROM
  3857  0D01  1283               	bcf	3,5	;RP0=0, select bank0
  3858  0D02  1303               	bcf	3,6	;RP1=0, select bank0
  3859  0D03  00B1               	movwf	??_view_log
  3860  0D04  0831               	movf	??_view_log,w
  3861  0D05  00B5               	movwf	view_log@ch
  3862  0D06                     l4725:
  3863                           
  3864                           ;car_black_box_def.c: 270:             clcd_putch(ch, (0xC0 + 3));
  3865  0D06  30C3               	movlw	195
  3866  0D07  00B1               	movwf	??_view_log
  3867  0D08  0831               	movf	??_view_log,w
  3868  0D09  00AE               	movwf	clcd_putch@addr
  3869  0D0A  0835               	movf	view_log@ch,w
  3870  0D0B  160A  158A  2782  120A  158A  	fcall	_clcd_putch
  3871  0D10                     l4727:
  3872                           
  3873                           ;car_black_box_def.c: 271:             clcd_putch(':', (0xC0 + 4));
  3874  0D10  30C4               	movlw	196
  3875  0D11  1283               	bcf	3,5	;RP0=0, select bank0
  3876  0D12  1303               	bcf	3,6	;RP1=0, select bank0
  3877  0D13  00B1               	movwf	??_view_log
  3878  0D14  0831               	movf	??_view_log,w
  3879  0D15  00AE               	movwf	clcd_putch@addr
  3880  0D16  303A               	movlw	58
  3881  0D17  160A  158A  2782  120A  158A  	fcall	_clcd_putch
  3882  0D1C                     l4729:
  3883                           
  3884                           ;car_black_box_def.c: 272:             ch = read_EEPROM(i+2);
  3885  0D1C  1283               	bcf	3,5	;RP0=0, select bank0
  3886  0D1D  1303               	bcf	3,6	;RP1=0, select bank0
  3887  0D1E  0834               	movf	view_log@i,w
  3888  0D1F  3E02               	addlw	2
  3889  0D20  160A  118A  234D  120A  158A  	fcall	_read_EEPROM
  3890  0D25  1283               	bcf	3,5	;RP0=0, select bank0
  3891  0D26  1303               	bcf	3,6	;RP1=0, select bank0
  3892  0D27  00B1               	movwf	??_view_log
  3893  0D28  0831               	movf	??_view_log,w
  3894  0D29  00B5               	movwf	view_log@ch
  3895  0D2A                     l4731:
  3896                           
  3897                           ;car_black_box_def.c: 273:             clcd_putch(ch, (0xC0 + 5));
  3898  0D2A  30C5               	movlw	197
  3899  0D2B  00B1               	movwf	??_view_log
  3900  0D2C  0831               	movf	??_view_log,w
  3901  0D2D  00AE               	movwf	clcd_putch@addr
  3902  0D2E  0835               	movf	view_log@ch,w
  3903  0D2F  160A  158A  2782  120A  158A  	fcall	_clcd_putch
  3904  0D34                     l4733:
  3905                           
  3906                           ;car_black_box_def.c: 274:             ch = read_EEPROM(i+3);
  3907  0D34  1283               	bcf	3,5	;RP0=0, select bank0
  3908  0D35  1303               	bcf	3,6	;RP1=0, select bank0
  3909  0D36  0834               	movf	view_log@i,w
  3910  0D37  3E03               	addlw	3
  3911  0D38  160A  118A  234D  120A  158A  	fcall	_read_EEPROM
  3912  0D3D  1283               	bcf	3,5	;RP0=0, select bank0
  3913  0D3E  1303               	bcf	3,6	;RP1=0, select bank0
  3914  0D3F  00B1               	movwf	??_view_log
  3915  0D40  0831               	movf	??_view_log,w
  3916  0D41  00B5               	movwf	view_log@ch
  3917  0D42                     l4735:
  3918                           
  3919                           ;car_black_box_def.c: 275:             clcd_putch(ch, (0xC0 + 6));
  3920  0D42  30C6               	movlw	198
  3921  0D43  00B1               	movwf	??_view_log
  3922  0D44  0831               	movf	??_view_log,w
  3923  0D45  00AE               	movwf	clcd_putch@addr
  3924  0D46  0835               	movf	view_log@ch,w
  3925  0D47  160A  158A  2782  120A  158A  	fcall	_clcd_putch
  3926  0D4C                     l4737:
  3927                           
  3928                           ;car_black_box_def.c: 276:             clcd_putch(':', (0xC0 + 7));
  3929  0D4C  30C7               	movlw	199
  3930  0D4D  1283               	bcf	3,5	;RP0=0, select bank0
  3931  0D4E  1303               	bcf	3,6	;RP1=0, select bank0
  3932  0D4F  00B1               	movwf	??_view_log
  3933  0D50  0831               	movf	??_view_log,w
  3934  0D51  00AE               	movwf	clcd_putch@addr
  3935  0D52  303A               	movlw	58
  3936  0D53  160A  158A  2782  120A  158A  	fcall	_clcd_putch
  3937  0D58                     l4739:
  3938                           
  3939                           ;car_black_box_def.c: 277:             ch = read_EEPROM(i+4);
  3940  0D58  1283               	bcf	3,5	;RP0=0, select bank0
  3941  0D59  1303               	bcf	3,6	;RP1=0, select bank0
  3942  0D5A  0834               	movf	view_log@i,w
  3943  0D5B  3E04               	addlw	4
  3944  0D5C  160A  118A  234D  120A  158A  	fcall	_read_EEPROM
  3945  0D61  1283               	bcf	3,5	;RP0=0, select bank0
  3946  0D62  1303               	bcf	3,6	;RP1=0, select bank0
  3947  0D63  00B1               	movwf	??_view_log
  3948  0D64  0831               	movf	??_view_log,w
  3949  0D65  00B5               	movwf	view_log@ch
  3950  0D66                     l4741:
  3951                           
  3952                           ;car_black_box_def.c: 278:             clcd_putch(ch, (0xC0 + 8));
  3953  0D66  30C8               	movlw	200
  3954  0D67  00B1               	movwf	??_view_log
  3955  0D68  0831               	movf	??_view_log,w
  3956  0D69  00AE               	movwf	clcd_putch@addr
  3957  0D6A  0835               	movf	view_log@ch,w
  3958  0D6B  160A  158A  2782  120A  158A  	fcall	_clcd_putch
  3959  0D70                     l4743:
  3960                           
  3961                           ;car_black_box_def.c: 279:             ch = read_EEPROM(i+5);
  3962  0D70  1283               	bcf	3,5	;RP0=0, select bank0
  3963  0D71  1303               	bcf	3,6	;RP1=0, select bank0
  3964  0D72  0834               	movf	view_log@i,w
  3965  0D73  3E05               	addlw	5
  3966  0D74  160A  118A  234D  120A  158A  	fcall	_read_EEPROM
  3967  0D79  1283               	bcf	3,5	;RP0=0, select bank0
  3968  0D7A  1303               	bcf	3,6	;RP1=0, select bank0
  3969  0D7B  00B1               	movwf	??_view_log
  3970  0D7C  0831               	movf	??_view_log,w
  3971  0D7D  00B5               	movwf	view_log@ch
  3972  0D7E                     l4745:
  3973                           
  3974                           ;car_black_box_def.c: 280:             clcd_putch(ch, (0xC0 + 9));
  3975  0D7E  30C9               	movlw	201
  3976  0D7F  00B1               	movwf	??_view_log
  3977  0D80  0831               	movf	??_view_log,w
  3978  0D81  00AE               	movwf	clcd_putch@addr
  3979  0D82  0835               	movf	view_log@ch,w
  3980  0D83  160A  158A  2782  120A  158A  	fcall	_clcd_putch
  3981  0D88                     l4747:
  3982                           
  3983                           ;car_black_box_def.c: 281:             clcd_putch(' ', (0xC0 + 10));
  3984  0D88  30CA               	movlw	202
  3985  0D89  1283               	bcf	3,5	;RP0=0, select bank0
  3986  0D8A  1303               	bcf	3,6	;RP1=0, select bank0
  3987  0D8B  00B1               	movwf	??_view_log
  3988  0D8C  0831               	movf	??_view_log,w
  3989  0D8D  00AE               	movwf	clcd_putch@addr
  3990  0D8E  3020               	movlw	32
  3991  0D8F  160A  158A  2782  120A  158A  	fcall	_clcd_putch
  3992  0D94                     l4749:
  3993                           
  3994                           ;car_black_box_def.c: 282:             ch = read_EEPROM(i+6);
  3995  0D94  1283               	bcf	3,5	;RP0=0, select bank0
  3996  0D95  1303               	bcf	3,6	;RP1=0, select bank0
  3997  0D96  0834               	movf	view_log@i,w
  3998  0D97  3E06               	addlw	6
  3999  0D98  160A  118A  234D  120A  158A  	fcall	_read_EEPROM
  4000  0D9D  1283               	bcf	3,5	;RP0=0, select bank0
  4001  0D9E  1303               	bcf	3,6	;RP1=0, select bank0
  4002  0D9F  00B1               	movwf	??_view_log
  4003  0DA0  0831               	movf	??_view_log,w
  4004  0DA1  00B5               	movwf	view_log@ch
  4005  0DA2                     l4751:
  4006                           
  4007                           ;car_black_box_def.c: 283:             clcd_putch(ch, (0xC0 + 11));
  4008  0DA2  30CB               	movlw	203
  4009  0DA3  00B1               	movwf	??_view_log
  4010  0DA4  0831               	movf	??_view_log,w
  4011  0DA5  00AE               	movwf	clcd_putch@addr
  4012  0DA6  0835               	movf	view_log@ch,w
  4013  0DA7  160A  158A  2782  120A  158A  	fcall	_clcd_putch
  4014  0DAC                     l4753:
  4015                           
  4016                           ;car_black_box_def.c: 284:             ch = read_EEPROM(i+7);
  4017  0DAC  1283               	bcf	3,5	;RP0=0, select bank0
  4018  0DAD  1303               	bcf	3,6	;RP1=0, select bank0
  4019  0DAE  0834               	movf	view_log@i,w
  4020  0DAF  3E07               	addlw	7
  4021  0DB0  160A  118A  234D  120A  158A  	fcall	_read_EEPROM
  4022  0DB5  1283               	bcf	3,5	;RP0=0, select bank0
  4023  0DB6  1303               	bcf	3,6	;RP1=0, select bank0
  4024  0DB7  00B1               	movwf	??_view_log
  4025  0DB8  0831               	movf	??_view_log,w
  4026  0DB9  00B5               	movwf	view_log@ch
  4027  0DBA                     l4755:
  4028                           
  4029                           ;car_black_box_def.c: 285:             clcd_putch(ch, (0xC0 + 12));
  4030  0DBA  30CC               	movlw	204
  4031  0DBB  00B1               	movwf	??_view_log
  4032  0DBC  0831               	movf	??_view_log,w
  4033  0DBD  00AE               	movwf	clcd_putch@addr
  4034  0DBE  0835               	movf	view_log@ch,w
  4035  0DBF  160A  158A  2782  120A  158A  	fcall	_clcd_putch
  4036  0DC4                     l4757:
  4037                           
  4038                           ;car_black_box_def.c: 286:             clcd_putch(' ', (0xC0 + 13));
  4039  0DC4  30CD               	movlw	205
  4040  0DC5  1283               	bcf	3,5	;RP0=0, select bank0
  4041  0DC6  1303               	bcf	3,6	;RP1=0, select bank0
  4042  0DC7  00B1               	movwf	??_view_log
  4043  0DC8  0831               	movf	??_view_log,w
  4044  0DC9  00AE               	movwf	clcd_putch@addr
  4045  0DCA  3020               	movlw	32
  4046  0DCB  160A  158A  2782  120A  158A  	fcall	_clcd_putch
  4047  0DD0                     l4759:
  4048                           
  4049                           ;car_black_box_def.c: 287:             ch = read_EEPROM(i+8);
  4050  0DD0  1283               	bcf	3,5	;RP0=0, select bank0
  4051  0DD1  1303               	bcf	3,6	;RP1=0, select bank0
  4052  0DD2  0834               	movf	view_log@i,w
  4053  0DD3  3E08               	addlw	8
  4054  0DD4  160A  118A  234D  120A  158A  	fcall	_read_EEPROM
  4055  0DD9  1283               	bcf	3,5	;RP0=0, select bank0
  4056  0DDA  1303               	bcf	3,6	;RP1=0, select bank0
  4057  0DDB  00B1               	movwf	??_view_log
  4058  0DDC  0831               	movf	??_view_log,w
  4059  0DDD  00B5               	movwf	view_log@ch
  4060  0DDE                     l4761:
  4061                           
  4062                           ;car_black_box_def.c: 288:             clcd_putch(ch, (0xC0 + 14));
  4063  0DDE  30CE               	movlw	206
  4064  0DDF  00B1               	movwf	??_view_log
  4065  0DE0  0831               	movf	??_view_log,w
  4066  0DE1  00AE               	movwf	clcd_putch@addr
  4067  0DE2  0835               	movf	view_log@ch,w
  4068  0DE3  160A  158A  2782  120A  158A  	fcall	_clcd_putch
  4069  0DE8                     l4763:
  4070                           
  4071                           ;car_black_box_def.c: 289:             ch = read_EEPROM(i+9);
  4072  0DE8  1283               	bcf	3,5	;RP0=0, select bank0
  4073  0DE9  1303               	bcf	3,6	;RP1=0, select bank0
  4074  0DEA  0834               	movf	view_log@i,w
  4075  0DEB  3E09               	addlw	9
  4076  0DEC  160A  118A  234D  120A  158A  	fcall	_read_EEPROM
  4077  0DF1  1283               	bcf	3,5	;RP0=0, select bank0
  4078  0DF2  1303               	bcf	3,6	;RP1=0, select bank0
  4079  0DF3  00B1               	movwf	??_view_log
  4080  0DF4  0831               	movf	??_view_log,w
  4081  0DF5  00B5               	movwf	view_log@ch
  4082  0DF6                     l4765:
  4083                           
  4084                           ;car_black_box_def.c: 290:             clcd_putch(ch, (0xC0 + 15));
  4085  0DF6  30CF               	movlw	207
  4086  0DF7  00B1               	movwf	??_view_log
  4087  0DF8  0831               	movf	??_view_log,w
  4088  0DF9  00AE               	movwf	clcd_putch@addr
  4089  0DFA  0835               	movf	view_log@ch,w
  4090  0DFB  160A  158A  2782  120A  158A  	fcall	_clcd_putch
  4091  0E00                     l414:
  4092  0E00  0008               	return
  4093  0E01                     __end_of_view_log:
  4094                           
  4095                           	psect	text2
  4096  11FD                     __ptext2:	
  4097 ;; *************** function _strcpy *****************
  4098 ;; Defined at:
  4099 ;;		line 8 in file "C:\Program Files\Microchip\xc8\v2.32\pic\sources\c90\common\strcpy.c"
  4100 ;; Parameters:    Size  Location     Type
  4101 ;;  to              1    wreg     PTR unsigned char 
  4102 ;;		 -> main@event(3), 
  4103 ;;  from            2    4[COMMON] PTR const unsigned char 
  4104 ;;		 -> STR_8(3), STR_6(3), STR_5(3), STR_4(3), 
  4105 ;;		 -> STR_3(3), STR_2(3), STR_1(3), 
  4106 ;; Auto vars:     Size  Location     Type
  4107 ;;  to              1    1[BANK0 ] PTR unsigned char 
  4108 ;;		 -> main@event(3), 
  4109 ;;  cp              1    0[BANK0 ] PTR unsigned char 
  4110 ;;		 -> main@event(3), 
  4111 ;; Return value:  Size  Location     Type
  4112 ;;                  1    wreg      PTR unsigned char 
  4113 ;; Registers used:
  4114 ;;		wreg, fsr0l, fsr0h, status,2, status,0, btemp+1, pclath
  4115 ;; Tracked objects:
  4116 ;;		On entry : 0/0
  4117 ;;		On exit  : 0/0
  4118 ;;		Unchanged: 0/0
  4119 ;; Data sizes:     COMMON   BANK0   BANK1   BANK3   BANK2
  4120 ;;      Params:         2       0       0       0       0
  4121 ;;      Locals:         0       2       0       0       0
  4122 ;;      Temps:          1       0       0       0       0
  4123 ;;      Totals:         3       2       0       0       0
  4124 ;;Total ram usage:        5 bytes
  4125 ;; Hardware stack levels used: 2
  4126 ;; Hardware stack levels required when called: 1
  4127 ;; This function calls:
  4128 ;;		Nothing
  4129 ;; This function is called by:
  4130 ;;		_main
  4131 ;; This function uses a non-reentrant model
  4132 ;;
  4133                           
  4134                           
  4135                           ;psect for function _strcpy
  4136  11FD                     _strcpy:
  4137                           
  4138                           ;incstack = 0
  4139                           ; Regs used in _strcpy: [wreg-fsr0h+status,2+status,0+btemp+1+pclath]
  4140                           ;strcpy@to stored from wreg
  4141  11FD  1283               	bcf	3,5	;RP0=0, select bank0
  4142  11FE  1303               	bcf	3,6	;RP1=0, select bank0
  4143  11FF  00A1               	movwf	strcpy@to
  4144  1200                     l4471:
  4145  1200  0821               	movf	strcpy@to,w
  4146  1201  00F6               	movwf	??_strcpy
  4147  1202  0876               	movf	??_strcpy,w
  4148  1203  00A0               	movwf	strcpy@cp
  4149  1204  2A0F               	goto	l4477
  4150  1205                     l4473:
  4151  1205  3001               	movlw	1
  4152  1206  00F6               	movwf	??_strcpy
  4153  1207  0876               	movf	??_strcpy,w
  4154  1208  07A0               	addwf	strcpy@cp,f
  4155  1209                     l4475:
  4156  1209  3001               	movlw	1
  4157  120A  07F4               	addwf	strcpy@from,f
  4158  120B  1803               	skipnc
  4159  120C  0AF5               	incf	strcpy@from+1,f
  4160  120D  3000               	movlw	0
  4161  120E  07F5               	addwf	strcpy@from+1,f
  4162  120F                     l4477:
  4163  120F  0875               	movf	strcpy@from+1,w
  4164  1210  00FF               	movwf	btemp+1
  4165  1211  0874               	movf	strcpy@from,w
  4166  1212  0084               	movwf	4
  4167  1213  160A  158A  2000  160A  118A  	fcall	stringtab
  4168  1218  00F6               	movwf	??_strcpy
  4169  1219  0820               	movf	strcpy@cp,w
  4170  121A  0084               	movwf	4
  4171  121B  0876               	movf	??_strcpy,w
  4172  121C  1783               	bsf	3,7	;select IRP bank2
  4173  121D  0080               	movwf	0
  4174  121E  0800               	movf	0,w
  4175  121F  1D03               	btfss	3,2
  4176  1220  2A22               	goto	u3941
  4177  1221  2A23               	goto	u3940
  4178  1222                     u3941:
  4179  1222  2A05               	goto	l4473
  4180  1223                     u3940:
  4181  1223                     l1110:
  4182  1223  0008               	return
  4183  1224                     __end_of_strcpy:
  4184                           
  4185                           	psect	text3
  4186  045C                     __ptext3:	
  4187 ;; *************** function _set_time *****************
  4188 ;; Defined at:
  4189 ;;		line 409 in file "car_black_box_def.c"
  4190 ;; Parameters:    Size  Location     Type
  4191 ;;  reset_flag      1    wreg     unsigned char 
  4192 ;;  key             1   16[BANK0 ] unsigned char 
  4193 ;; Auto vars:     Size  Location     Type
  4194 ;;  reset_flag      1   20[BANK0 ] unsigned char 
  4195 ;; Return value:  Size  Location     Type
  4196 ;;                  1    wreg      void 
  4197 ;; Registers used:
  4198 ;;		wreg, fsr0l, fsr0h, status,2, status,0, btemp+1, pclath, cstack
  4199 ;; Tracked objects:
  4200 ;;		On entry : 0/0
  4201 ;;		On exit  : 0/0
  4202 ;;		Unchanged: 0/0
  4203 ;; Data sizes:     COMMON   BANK0   BANK1   BANK3   BANK2
  4204 ;;      Params:         0       1       0       0       0
  4205 ;;      Locals:         0       1       0       0       0
  4206 ;;      Temps:          0       3       0       0       0
  4207 ;;      Totals:         0       5       0       0       0
  4208 ;;Total ram usage:        5 bytes
  4209 ;; Hardware stack levels used: 1
  4210 ;; Hardware stack levels required when called: 6
  4211 ;; This function calls:
  4212 ;;		___awdiv
  4213 ;;		___awmod
  4214 ;;		___bmul
  4215 ;;		_clcd_print
  4216 ;;		_clcd_putch
  4217 ;;		_clear_screen
  4218 ;;		_get_time
  4219 ;; This function is called by:
  4220 ;;		_main
  4221 ;; This function uses a non-reentrant model
  4222 ;;
  4223                           
  4224                           
  4225                           ;psect for function _set_time
  4226  045C                     _set_time:
  4227                           
  4228                           ;incstack = 0
  4229                           ; Regs used in _set_time: [wreg-fsr0h+status,2+status,0+btemp+1+pclath+cstack]
  4230                           ;set_time@reset_flag stored from wreg
  4231  045C  1283               	bcf	3,5	;RP0=0, select bank0
  4232  045D  1303               	bcf	3,6	;RP1=0, select bank0
  4233  045E  00B4               	movwf	set_time@reset_flag
  4234  045F                     l4767:
  4235                           
  4236                           ;car_black_box_def.c: 409: void set_time(unsigned char reset_flag, unsigned char key);ca
      +                          r_black_box_def.c: 410: {;car_black_box_def.c: 411:     static unsigned char second_flag
      +                          , minute_flag, hour_flag, delay, flag;;car_black_box_def.c: 413:     static char new_tim
      +                          e[7];;car_black_box_def.c: 414:     if(reset_flag == 0x14)
  4237  045F  3014               	movlw	20
  4238  0460  0634               	xorwf	set_time@reset_flag,w
  4239  0461  1D03               	btfss	3,2
  4240  0462  2C64               	goto	u4251
  4241  0463  2C65               	goto	u4250
  4242  0464                     u4251:
  4243  0464  2D89               	goto	l4821
  4244  0465                     u4250:
  4245  0465                     l4769:
  4246                           
  4247                           ;car_black_box_def.c: 415:     {;car_black_box_def.c: 416:         key = 0x3F;
  4248  0465  303F               	movlw	63
  4249  0466  00B1               	movwf	??_set_time
  4250  0467  0831               	movf	??_set_time,w
  4251  0468  00B0               	movwf	set_time@key
  4252  0469                     l4771:
  4253                           
  4254                           ;car_black_box_def.c: 417:         second_flag = 1;
  4255  0469  01C6               	clrf	set_time@second_flag
  4256  046A  0AC6               	incf	set_time@second_flag,f
  4257  046B                     l4773:
  4258                           
  4259                           ;car_black_box_def.c: 418:         minute_flag = 0;
  4260  046B  01C5               	clrf	set_time@minute_flag
  4261  046C                     l4775:
  4262                           
  4263                           ;car_black_box_def.c: 419:         hour_flag = 0;
  4264  046C  01C4               	clrf	set_time@hour_flag
  4265  046D                     l4777:
  4266                           
  4267                           ;car_black_box_def.c: 420:         delay = 0;
  4268  046D  01C3               	clrf	set_time@delay
  4269  046E                     l4779:
  4270                           
  4271                           ;car_black_box_def.c: 421:         clear_screen();
  4272  046E  160A  158A  2749  120A  118A  	fcall	_clear_screen
  4273  0473                     l4781:
  4274                           
  4275                           ;car_black_box_def.c: 422:         clcd_print("    HH:MM:SS    ", (0x80 + 0));
  4276  0473  3025               	movlw	low (STR_29| (0+32768))
  4277  0474  1283               	bcf	3,5	;RP0=0, select bank0
  4278  0475  1303               	bcf	3,6	;RP1=0, select bank0
  4279  0476  00A1               	movwf	clcd_print@str
  4280  0477  3090               	movlw	high (STR_29| (0+32768))
  4281  0478  00A2               	movwf	clcd_print@str+1
  4282  0479  3080               	movlw	128
  4283  047A  00B1               	movwf	??_set_time
  4284  047B  0831               	movf	??_set_time,w
  4285  047C  00A3               	movwf	clcd_print@addr
  4286  047D  160A  118A  22B1  120A  118A  	fcall	_clcd_print
  4287  0482                     l4783:
  4288                           
  4289                           ;car_black_box_def.c: 423:         get_time();
  4290  0482  160A  118A  2192  120A  118A  	fcall	_get_time
  4291  0487                     l4785:
  4292                           
  4293                           ;car_black_box_def.c: 427:         time[0] = ((clock_reg[0] >> 4) & 0x03) + '0';
  4294  0487  1283               	bcf	3,5	;RP0=0, select bank0
  4295  0488  1303               	bcf	3,6	;RP1=0, select bank0
  4296  0489  083E               	movf	_clock_reg,w
  4297  048A  00B1               	movwf	??_set_time
  4298  048B  3004               	movlw	4
  4299  048C                     u4265:
  4300  048C  1003               	clrc
  4301  048D  0CB1               	rrf	??_set_time,f
  4302  048E  3EFF               	addlw	-1
  4303  048F  1D03               	skipz
  4304  0490  2C8C               	goto	u4265
  4305  0491  0831               	movf	??_set_time,w
  4306  0492  3903               	andlw	3
  4307  0493  3E30               	addlw	48
  4308  0494  00B2               	movwf	??_set_time+1
  4309  0495  0832               	movf	??_set_time+1,w
  4310  0496  1683               	bsf	3,5	;RP0=1, select bank1
  4311  0497  1303               	bcf	3,6	;RP1=0, select bank1
  4312  0498  00B6               	movwf	_time^(0+128)
  4313  0499                     l4787:
  4314                           
  4315                           ;car_black_box_def.c: 428:         time[1] = (clock_reg[0] & 0x0F) + '0';
  4316  0499  1283               	bcf	3,5	;RP0=0, select bank0
  4317  049A  1303               	bcf	3,6	;RP1=0, select bank0
  4318  049B  083E               	movf	_clock_reg,w
  4319  049C  390F               	andlw	15
  4320  049D  3E30               	addlw	48
  4321  049E  00B1               	movwf	??_set_time
  4322  049F  0831               	movf	??_set_time,w
  4323  04A0  1683               	bsf	3,5	;RP0=1, select bank1
  4324  04A1  1303               	bcf	3,6	;RP1=0, select bank1
  4325  04A2  00B7               	movwf	(_time^(0+128)+1)
  4326  04A3                     l4789:
  4327                           
  4328                           ;car_black_box_def.c: 431:         time[2] = ((clock_reg[1] >> 4) & 0x07) + '0';
  4329  04A3  1283               	bcf	3,5	;RP0=0, select bank0
  4330  04A4  1303               	bcf	3,6	;RP1=0, select bank0
  4331  04A5  083F               	movf	_clock_reg+1,w
  4332  04A6  00B1               	movwf	??_set_time
  4333  04A7  3004               	movlw	4
  4334  04A8                     u4275:
  4335  04A8  1003               	clrc
  4336  04A9  0CB1               	rrf	??_set_time,f
  4337  04AA  3EFF               	addlw	-1
  4338  04AB  1D03               	skipz
  4339  04AC  2CA8               	goto	u4275
  4340  04AD  0831               	movf	??_set_time,w
  4341  04AE  3907               	andlw	7
  4342  04AF  3E30               	addlw	48
  4343  04B0  00B2               	movwf	??_set_time+1
  4344  04B1  0832               	movf	??_set_time+1,w
  4345  04B2  1683               	bsf	3,5	;RP0=1, select bank1
  4346  04B3  1303               	bcf	3,6	;RP1=0, select bank1
  4347  04B4  00B8               	movwf	(_time^(0+128)+2)
  4348  04B5                     l4791:
  4349                           
  4350                           ;car_black_box_def.c: 432:         time[3] = (clock_reg[1] & 0x0F) + '0';
  4351  04B5  1283               	bcf	3,5	;RP0=0, select bank0
  4352  04B6  1303               	bcf	3,6	;RP1=0, select bank0
  4353  04B7  083F               	movf	_clock_reg+1,w
  4354  04B8  390F               	andlw	15
  4355  04B9  3E30               	addlw	48
  4356  04BA  00B1               	movwf	??_set_time
  4357  04BB  0831               	movf	??_set_time,w
  4358  04BC  1683               	bsf	3,5	;RP0=1, select bank1
  4359  04BD  1303               	bcf	3,6	;RP1=0, select bank1
  4360  04BE  00B9               	movwf	(_time^(0+128)+3)
  4361  04BF                     l4793:
  4362                           
  4363                           ;car_black_box_def.c: 435:         time[4] = ((clock_reg[2] >> 4) & 0x07) + '0';
  4364  04BF  1283               	bcf	3,5	;RP0=0, select bank0
  4365  04C0  1303               	bcf	3,6	;RP1=0, select bank0
  4366  04C1  0840               	movf	_clock_reg+2,w
  4367  04C2  00B1               	movwf	??_set_time
  4368  04C3  3004               	movlw	4
  4369  04C4                     u4285:
  4370  04C4  1003               	clrc
  4371  04C5  0CB1               	rrf	??_set_time,f
  4372  04C6  3EFF               	addlw	-1
  4373  04C7  1D03               	skipz
  4374  04C8  2CC4               	goto	u4285
  4375  04C9  0831               	movf	??_set_time,w
  4376  04CA  3907               	andlw	7
  4377  04CB  3E30               	addlw	48
  4378  04CC  00B2               	movwf	??_set_time+1
  4379  04CD  0832               	movf	??_set_time+1,w
  4380  04CE  1683               	bsf	3,5	;RP0=1, select bank1
  4381  04CF  1303               	bcf	3,6	;RP1=0, select bank1
  4382  04D0  00BA               	movwf	(_time^(0+128)+4)
  4383  04D1                     l4795:
  4384                           
  4385                           ;car_black_box_def.c: 436:         time[5] = (clock_reg[2] & 0x0F) + '0';
  4386  04D1  1283               	bcf	3,5	;RP0=0, select bank0
  4387  04D2  1303               	bcf	3,6	;RP1=0, select bank0
  4388  04D3  0840               	movf	_clock_reg+2,w
  4389  04D4  390F               	andlw	15
  4390  04D5  3E30               	addlw	48
  4391  04D6  00B1               	movwf	??_set_time
  4392  04D7  0831               	movf	??_set_time,w
  4393  04D8  1683               	bsf	3,5	;RP0=1, select bank1
  4394  04D9  1303               	bcf	3,6	;RP1=0, select bank1
  4395  04DA  00BB               	movwf	(_time^(0+128)+5)
  4396  04DB                     l4797:
  4397                           
  4398                           ;car_black_box_def.c: 437:         time[6] = '\0';
  4399  04DB  01BC               	clrf	(_time^(0+128)+6)
  4400  04DC                     l4799:
  4401                           
  4402                           ;car_black_box_def.c: 439:         clcd_putch(time[0], (0xC0 + 4));
  4403  04DC  30C4               	movlw	196
  4404  04DD  1283               	bcf	3,5	;RP0=0, select bank0
  4405  04DE  1303               	bcf	3,6	;RP1=0, select bank0
  4406  04DF  00B1               	movwf	??_set_time
  4407  04E0  0831               	movf	??_set_time,w
  4408  04E1  00AE               	movwf	clcd_putch@addr
  4409  04E2  1683               	bsf	3,5	;RP0=1, select bank1
  4410  04E3  1303               	bcf	3,6	;RP1=0, select bank1
  4411  04E4  0836               	movf	_time^(0+128),w
  4412  04E5  160A  158A  2782  120A  118A  	fcall	_clcd_putch
  4413  04EA                     l4801:
  4414                           
  4415                           ;car_black_box_def.c: 440:         clcd_putch(time[1], (0xC0 + 5));
  4416  04EA  30C5               	movlw	197
  4417  04EB  1283               	bcf	3,5	;RP0=0, select bank0
  4418  04EC  1303               	bcf	3,6	;RP1=0, select bank0
  4419  04ED  00B1               	movwf	??_set_time
  4420  04EE  0831               	movf	??_set_time,w
  4421  04EF  00AE               	movwf	clcd_putch@addr
  4422  04F0  1683               	bsf	3,5	;RP0=1, select bank1
  4423  04F1  1303               	bcf	3,6	;RP1=0, select bank1
  4424  04F2  0837               	movf	(_time^(0+128)+1),w
  4425  04F3  160A  158A  2782  120A  118A  	fcall	_clcd_putch
  4426  04F8                     l4803:
  4427                           
  4428                           ;car_black_box_def.c: 441:         clcd_putch(':', (0xC0 + 6));
  4429  04F8  30C6               	movlw	198
  4430  04F9  1283               	bcf	3,5	;RP0=0, select bank0
  4431  04FA  1303               	bcf	3,6	;RP1=0, select bank0
  4432  04FB  00B1               	movwf	??_set_time
  4433  04FC  0831               	movf	??_set_time,w
  4434  04FD  00AE               	movwf	clcd_putch@addr
  4435  04FE  303A               	movlw	58
  4436  04FF  160A  158A  2782  120A  118A  	fcall	_clcd_putch
  4437  0504                     l4805:
  4438                           
  4439                           ;car_black_box_def.c: 442:         clcd_putch(time[2], (0xC0 + 7));
  4440  0504  30C7               	movlw	199
  4441  0505  1283               	bcf	3,5	;RP0=0, select bank0
  4442  0506  1303               	bcf	3,6	;RP1=0, select bank0
  4443  0507  00B1               	movwf	??_set_time
  4444  0508  0831               	movf	??_set_time,w
  4445  0509  00AE               	movwf	clcd_putch@addr
  4446  050A  1683               	bsf	3,5	;RP0=1, select bank1
  4447  050B  1303               	bcf	3,6	;RP1=0, select bank1
  4448  050C  0838               	movf	(_time^(0+128)+2),w
  4449  050D  160A  158A  2782  120A  118A  	fcall	_clcd_putch
  4450  0512                     l4807:
  4451                           
  4452                           ;car_black_box_def.c: 443:         clcd_putch(time[3], (0xC0 + 8));
  4453  0512  30C8               	movlw	200
  4454  0513  1283               	bcf	3,5	;RP0=0, select bank0
  4455  0514  1303               	bcf	3,6	;RP1=0, select bank0
  4456  0515  00B1               	movwf	??_set_time
  4457  0516  0831               	movf	??_set_time,w
  4458  0517  00AE               	movwf	clcd_putch@addr
  4459  0518  1683               	bsf	3,5	;RP0=1, select bank1
  4460  0519  1303               	bcf	3,6	;RP1=0, select bank1
  4461  051A  0839               	movf	(_time^(0+128)+3),w
  4462  051B  160A  158A  2782  120A  118A  	fcall	_clcd_putch
  4463  0520                     l4809:
  4464                           
  4465                           ;car_black_box_def.c: 444:         clcd_putch(':', (0xC0 + 9));
  4466  0520  30C9               	movlw	201
  4467  0521  1283               	bcf	3,5	;RP0=0, select bank0
  4468  0522  1303               	bcf	3,6	;RP1=0, select bank0
  4469  0523  00B1               	movwf	??_set_time
  4470  0524  0831               	movf	??_set_time,w
  4471  0525  00AE               	movwf	clcd_putch@addr
  4472  0526  303A               	movlw	58
  4473  0527  160A  158A  2782  120A  118A  	fcall	_clcd_putch
  4474  052C                     l4811:
  4475                           
  4476                           ;car_black_box_def.c: 445:         clcd_putch(time[4], (0xC0 + 10));
  4477  052C  30CA               	movlw	202
  4478  052D  1283               	bcf	3,5	;RP0=0, select bank0
  4479  052E  1303               	bcf	3,6	;RP1=0, select bank0
  4480  052F  00B1               	movwf	??_set_time
  4481  0530  0831               	movf	??_set_time,w
  4482  0531  00AE               	movwf	clcd_putch@addr
  4483  0532  1683               	bsf	3,5	;RP0=1, select bank1
  4484  0533  1303               	bcf	3,6	;RP1=0, select bank1
  4485  0534  083A               	movf	(_time^(0+128)+4),w
  4486  0535  160A  158A  2782  120A  118A  	fcall	_clcd_putch
  4487  053A                     l4813:
  4488                           
  4489                           ;car_black_box_def.c: 446:         clcd_putch(time[5], (0xC0 + 11));
  4490  053A  30CB               	movlw	203
  4491  053B  1283               	bcf	3,5	;RP0=0, select bank0
  4492  053C  1303               	bcf	3,6	;RP1=0, select bank0
  4493  053D  00B1               	movwf	??_set_time
  4494  053E  0831               	movf	??_set_time,w
  4495  053F  00AE               	movwf	clcd_putch@addr
  4496  0540  1683               	bsf	3,5	;RP0=1, select bank1
  4497  0541  1303               	bcf	3,6	;RP1=0, select bank1
  4498  0542  083B               	movf	(_time^(0+128)+5),w
  4499  0543  160A  158A  2782  120A  118A  	fcall	_clcd_putch
  4500  0548                     l4815:
  4501                           
  4502                           ;car_black_box_def.c: 447:         hour = (time[0]-'0')*10+(time[1]-'0');
  4503  0548  300A               	movlw	10
  4504  0549  1283               	bcf	3,5	;RP0=0, select bank0
  4505  054A  1303               	bcf	3,6	;RP1=0, select bank0
  4506  054B  00B1               	movwf	??_set_time
  4507  054C  0831               	movf	??_set_time,w
  4508  054D  00F4               	movwf	___bmul@multiplicand
  4509  054E  1683               	bsf	3,5	;RP0=1, select bank1
  4510  054F  1303               	bcf	3,6	;RP1=0, select bank1
  4511  0550  0836               	movf	_time^(0+128),w
  4512  0551  160A  158A  2797  120A  118A  	fcall	___bmul
  4513  0556  1683               	bsf	3,5	;RP0=1, select bank1
  4514  0557  1303               	bcf	3,6	;RP1=0, select bank1
  4515  0558  0737               	addwf	(_time^(0+128)+1),w
  4516  0559  3EF0               	addlw	240
  4517  055A  1283               	bcf	3,5	;RP0=0, select bank0
  4518  055B  1303               	bcf	3,6	;RP1=0, select bank0
  4519  055C  00B2               	movwf	??_set_time+1
  4520  055D  0832               	movf	??_set_time+1,w
  4521  055E  00D0               	movwf	_hour
  4522  055F                     l4817:
  4523                           
  4524                           ;car_black_box_def.c: 448:         minute = (time[2]-'0')*10+(time[3]-'0');
  4525  055F  300A               	movlw	10
  4526  0560  00B1               	movwf	??_set_time
  4527  0561  0831               	movf	??_set_time,w
  4528  0562  00F4               	movwf	___bmul@multiplicand
  4529  0563  1683               	bsf	3,5	;RP0=1, select bank1
  4530  0564  1303               	bcf	3,6	;RP1=0, select bank1
  4531  0565  0838               	movf	(_time^(0+128)+2),w
  4532  0566  160A  158A  2797  120A  118A  	fcall	___bmul
  4533  056B  1683               	bsf	3,5	;RP0=1, select bank1
  4534  056C  1303               	bcf	3,6	;RP1=0, select bank1
  4535  056D  0739               	addwf	(_time^(0+128)+3),w
  4536  056E  3EF0               	addlw	240
  4537  056F  1283               	bcf	3,5	;RP0=0, select bank0
  4538  0570  1303               	bcf	3,6	;RP1=0, select bank0
  4539  0571  00B2               	movwf	??_set_time+1
  4540  0572  0832               	movf	??_set_time+1,w
  4541  0573  00D1               	movwf	_minute
  4542  0574                     l4819:
  4543                           
  4544                           ;car_black_box_def.c: 449:         second = (time[4]-'0')*10+(time[5]-'0');
  4545  0574  300A               	movlw	10
  4546  0575  00B1               	movwf	??_set_time
  4547  0576  0831               	movf	??_set_time,w
  4548  0577  00F4               	movwf	___bmul@multiplicand
  4549  0578  1683               	bsf	3,5	;RP0=1, select bank1
  4550  0579  1303               	bcf	3,6	;RP1=0, select bank1
  4551  057A  083A               	movf	(_time^(0+128)+4),w
  4552  057B  160A  158A  2797  120A  118A  	fcall	___bmul
  4553  0580  1683               	bsf	3,5	;RP0=1, select bank1
  4554  0581  1303               	bcf	3,6	;RP1=0, select bank1
  4555  0582  073B               	addwf	(_time^(0+128)+5),w
  4556  0583  3EF0               	addlw	240
  4557  0584  1283               	bcf	3,5	;RP0=0, select bank0
  4558  0585  1303               	bcf	3,6	;RP1=0, select bank0
  4559  0586  00B2               	movwf	??_set_time+1
  4560  0587  0832               	movf	??_set_time+1,w
  4561  0588  00D2               	movwf	_second
  4562  0589                     l4821:
  4563                           
  4564                           ;car_black_box_def.c: 454:     if(key == 0x37)
  4565  0589  3037               	movlw	55
  4566  058A  0630               	xorwf	set_time@key,w
  4567  058B  1D03               	btfss	3,2
  4568  058C  2D8E               	goto	u4291
  4569  058D  2D8F               	goto	u4290
  4570  058E                     u4291:
  4571  058E  2DC3               	goto	l4847
  4572  058F                     u4290:
  4573  058F                     l4823:
  4574                           
  4575                           ;car_black_box_def.c: 455:     {;car_black_box_def.c: 456:         if(minute_flag)
  4576  058F  0845               	movf	set_time@minute_flag,w
  4577  0590  1903               	btfsc	3,2
  4578  0591  2D93               	goto	u4301
  4579  0592  2D94               	goto	u4300
  4580  0593                     u4301:
  4581  0593  2DA0               	goto	l4831
  4582  0594                     u4300:
  4583  0594                     l4825:
  4584                           
  4585                           ;car_black_box_def.c: 457:         {;car_black_box_def.c: 458:             ++minute;
  4586  0594  3001               	movlw	1
  4587  0595  00B1               	movwf	??_set_time
  4588  0596  0831               	movf	??_set_time,w
  4589  0597  07D1               	addwf	_minute,f
  4590  0598                     l4827:
  4591                           
  4592                           ;car_black_box_def.c: 459:             if(minute > 60)
  4593  0598  303D               	movlw	61
  4594  0599  0251               	subwf	_minute,w
  4595  059A  1C03               	skipc
  4596  059B  2D9D               	goto	u4311
  4597  059C  2D9E               	goto	u4310
  4598  059D                     u4311:
  4599  059D  2DE6               	goto	l4867
  4600  059E                     u4310:
  4601  059E                     l4829:
  4602                           
  4603                           ;car_black_box_def.c: 460:                 minute = 0;
  4604  059E  01D1               	clrf	_minute
  4605  059F  2DE6               	goto	l4867
  4606  05A0                     l4831:
  4607  05A0  0844               	movf	set_time@hour_flag,w
  4608  05A1  1903               	btfsc	3,2
  4609  05A2  2DA4               	goto	u4321
  4610  05A3  2DA5               	goto	u4320
  4611  05A4                     u4321:
  4612  05A4  2DB1               	goto	l4839
  4613  05A5                     u4320:
  4614  05A5                     l4833:
  4615                           
  4616                           ;car_black_box_def.c: 463:         {;car_black_box_def.c: 464:             ++hour;
  4617  05A5  3001               	movlw	1
  4618  05A6  00B1               	movwf	??_set_time
  4619  05A7  0831               	movf	??_set_time,w
  4620  05A8  07D0               	addwf	_hour,f
  4621  05A9                     l4835:
  4622                           
  4623                           ;car_black_box_def.c: 465:             if(hour > 24)
  4624  05A9  3019               	movlw	25
  4625  05AA  0250               	subwf	_hour,w
  4626  05AB  1C03               	skipc
  4627  05AC  2DAE               	goto	u4331
  4628  05AD  2DAF               	goto	u4330
  4629  05AE                     u4331:
  4630  05AE  2DE6               	goto	l4867
  4631  05AF                     u4330:
  4632  05AF                     l4837:
  4633                           
  4634                           ;car_black_box_def.c: 466:                 hour = 0;
  4635  05AF  01D0               	clrf	_hour
  4636  05B0  2DE6               	goto	l4867
  4637  05B1                     l4839:
  4638  05B1  0846               	movf	set_time@second_flag,w
  4639  05B2  1903               	btfsc	3,2
  4640  05B3  2DB5               	goto	u4341
  4641  05B4  2DB6               	goto	u4340
  4642  05B5                     u4341:
  4643  05B5  2DC2               	goto	l462
  4644  05B6                     u4340:
  4645  05B6                     l4841:
  4646                           
  4647                           ;car_black_box_def.c: 469:         {;car_black_box_def.c: 470:             ++second;
  4648  05B6  3001               	movlw	1
  4649  05B7  00B1               	movwf	??_set_time
  4650  05B8  0831               	movf	??_set_time,w
  4651  05B9  07D2               	addwf	_second,f
  4652  05BA                     l4843:
  4653                           
  4654                           ;car_black_box_def.c: 471:             if(second > 60)
  4655  05BA  303D               	movlw	61
  4656  05BB  0252               	subwf	_second,w
  4657  05BC  1C03               	skipc
  4658  05BD  2DBF               	goto	u4351
  4659  05BE  2DC0               	goto	u4350
  4660  05BF                     u4351:
  4661  05BF  2DE6               	goto	l4867
  4662  05C0                     u4350:
  4663  05C0                     l4845:
  4664                           
  4665                           ;car_black_box_def.c: 472:                 second = 0;
  4666  05C0  01D2               	clrf	_second
  4667  05C1  2DE6               	goto	l4867
  4668  05C2                     l462:
  4669                           
  4670                           ;car_black_box_def.c: 474:     }
  4671  05C2  2DE6               	goto	l4867
  4672  05C3                     l4847:
  4673  05C3  302F               	movlw	47
  4674  05C4  0630               	xorwf	set_time@key,w
  4675  05C5  1D03               	btfss	3,2
  4676  05C6  2DC8               	goto	u4361
  4677  05C7  2DC9               	goto	u4360
  4678  05C8                     u4361:
  4679  05C8  2DE6               	goto	l4867
  4680  05C9                     u4360:
  4681  05C9                     l4849:
  4682                           
  4683                           ;car_black_box_def.c: 477:     {;car_black_box_def.c: 478:         if(second_flag)
  4684  05C9  0846               	movf	set_time@second_flag,w
  4685  05CA  1903               	btfsc	3,2
  4686  05CB  2DCD               	goto	u4371
  4687  05CC  2DCE               	goto	u4370
  4688  05CD                     u4371:
  4689  05CD  2DD3               	goto	l4855
  4690  05CE                     u4370:
  4691  05CE                     l4851:
  4692                           
  4693                           ;car_black_box_def.c: 479:         {;car_black_box_def.c: 480:             hour_flag = 0
      +                          ;
  4694  05CE  01C4               	clrf	set_time@hour_flag
  4695  05CF                     l4853:
  4696                           
  4697                           ;car_black_box_def.c: 481:             minute_flag = 1;
  4698  05CF  01C5               	clrf	set_time@minute_flag
  4699  05D0  0AC5               	incf	set_time@minute_flag,f
  4700                           
  4701                           ;car_black_box_def.c: 482:             second_flag = 0;
  4702  05D1  01C6               	clrf	set_time@second_flag
  4703                           
  4704                           ;car_black_box_def.c: 483:         }
  4705  05D2  2DE6               	goto	l4867
  4706  05D3                     l4855:
  4707  05D3  0845               	movf	set_time@minute_flag,w
  4708  05D4  1903               	btfsc	3,2
  4709  05D5  2DD7               	goto	u4381
  4710  05D6  2DD8               	goto	u4380
  4711  05D7                     u4381:
  4712  05D7  2DDD               	goto	l4861
  4713  05D8                     u4380:
  4714  05D8                     l4857:
  4715                           
  4716                           ;car_black_box_def.c: 485:         {;car_black_box_def.c: 486:             hour_flag = 1
      +                          ;
  4717  05D8  01C4               	clrf	set_time@hour_flag
  4718  05D9  0AC4               	incf	set_time@hour_flag,f
  4719  05DA                     l4859:
  4720                           
  4721                           ;car_black_box_def.c: 487:             minute_flag = 0;
  4722  05DA  01C5               	clrf	set_time@minute_flag
  4723                           
  4724                           ;car_black_box_def.c: 488:             second_flag = 0;
  4725  05DB  01C6               	clrf	set_time@second_flag
  4726                           
  4727                           ;car_black_box_def.c: 489:         }
  4728  05DC  2DE6               	goto	l4867
  4729  05DD                     l4861:
  4730  05DD  0844               	movf	set_time@hour_flag,w
  4731  05DE  1903               	btfsc	3,2
  4732  05DF  2DE1               	goto	u4391
  4733  05E0  2DE2               	goto	u4390
  4734  05E1                     u4391:
  4735  05E1  2DC2               	goto	l462
  4736  05E2                     u4390:
  4737  05E2                     l4863:
  4738                           
  4739                           ;car_black_box_def.c: 491:         {;car_black_box_def.c: 492:             hour_flag = 0
      +                          ;
  4740  05E2  01C4               	clrf	set_time@hour_flag
  4741                           
  4742                           ;car_black_box_def.c: 493:             minute_flag = 0;
  4743  05E3  01C5               	clrf	set_time@minute_flag
  4744  05E4                     l4865:
  4745                           
  4746                           ;car_black_box_def.c: 494:             second_flag = 1;
  4747  05E4  01C6               	clrf	set_time@second_flag
  4748  05E5  0AC6               	incf	set_time@second_flag,f
  4749  05E6                     l4867:
  4750                           
  4751                           ;car_black_box_def.c: 499:     if(second_flag)
  4752  05E6  0846               	movf	set_time@second_flag,w
  4753  05E7  1903               	btfsc	3,2
  4754  05E8  2DEA               	goto	u4401
  4755  05E9  2DEB               	goto	u4400
  4756  05EA                     u4401:
  4757  05EA  2DF0               	goto	l4871
  4758  05EB                     u4400:
  4759  05EB                     l4869:
  4760                           
  4761                           ;car_black_box_def.c: 500:     {;car_black_box_def.c: 501:         if(flag)
  4762  05EB  0842               	movf	set_time@flag,w
  4763  05EC  1903               	btfsc	3,2
  4764  05ED  2DEF               	goto	u4411
  4765  05EE  2DF0               	goto	u4410
  4766  05EF                     u4411:
  4767  05EF  2E34               	goto	l4873
  4768  05F0                     u4410:
  4769  05F0                     l4871:
  4770                           
  4771                           ;car_black_box_def.c: 502:         {;car_black_box_def.c: 503:             new_time[4] =
      +                           (second / 10) % 10 + '0';
  4772  05F0  300A               	movlw	10
  4773  05F1  00A8               	movwf	___awmod@divisor
  4774  05F2  3000               	movlw	0
  4775  05F3  00A9               	movwf	___awmod@divisor+1
  4776  05F4  300A               	movlw	10
  4777  05F5  00A0               	movwf	___awdiv@divisor
  4778  05F6  3000               	movlw	0
  4779  05F7  00A1               	movwf	___awdiv@divisor+1
  4780  05F8  0852               	movf	_second,w
  4781  05F9  00B1               	movwf	??_set_time
  4782  05FA  01B2               	clrf	??_set_time+1
  4783  05FB  0831               	movf	??_set_time,w
  4784  05FC  00A2               	movwf	___awdiv@dividend
  4785  05FD  0832               	movf	??_set_time+1,w
  4786  05FE  00A3               	movwf	___awdiv@dividend+1
  4787  05FF  160A  118A  26D0  120A  118A  	fcall	___awdiv
  4788  0604  1283               	bcf	3,5	;RP0=0, select bank0
  4789  0605  1303               	bcf	3,6	;RP1=0, select bank0
  4790  0606  0821               	movf	?___awdiv+1,w
  4791  0607  00AB               	movwf	___awmod@dividend+1
  4792  0608  0820               	movf	?___awdiv,w
  4793  0609  00AA               	movwf	___awmod@dividend
  4794  060A  160A  118A  254C  120A  118A  	fcall	___awmod
  4795  060F  1283               	bcf	3,5	;RP0=0, select bank0
  4796  0610  1303               	bcf	3,6	;RP1=0, select bank0
  4797  0611  0828               	movf	?___awmod,w
  4798  0612  3E30               	addlw	48
  4799  0613  00B3               	movwf	??_set_time+2
  4800  0614  0833               	movf	??_set_time+2,w
  4801  0615  1683               	bsf	3,5	;RP0=1, select bank1
  4802  0616  1303               	bcf	3,6	;RP1=0, select bank1
  4803  0617  00A4               	movwf	(set_time@new_time^(0+128)+4)
  4804                           
  4805                           ;car_black_box_def.c: 504:             new_time[5] = (second / 1) % 10 + '0';
  4806  0618  300A               	movlw	10
  4807  0619  1283               	bcf	3,5	;RP0=0, select bank0
  4808  061A  1303               	bcf	3,6	;RP1=0, select bank0
  4809  061B  00A8               	movwf	___awmod@divisor
  4810  061C  3000               	movlw	0
  4811  061D  00A9               	movwf	___awmod@divisor+1
  4812  061E  0852               	movf	_second,w
  4813  061F  00B1               	movwf	??_set_time
  4814  0620  01B2               	clrf	??_set_time+1
  4815  0621  0831               	movf	??_set_time,w
  4816  0622  00AA               	movwf	___awmod@dividend
  4817  0623  0832               	movf	??_set_time+1,w
  4818  0624  00AB               	movwf	___awmod@dividend+1
  4819  0625  160A  118A  254C  120A  118A  	fcall	___awmod
  4820  062A  1283               	bcf	3,5	;RP0=0, select bank0
  4821  062B  1303               	bcf	3,6	;RP1=0, select bank0
  4822  062C  0828               	movf	?___awmod,w
  4823  062D  3E30               	addlw	48
  4824  062E  00B3               	movwf	??_set_time+2
  4825  062F  0833               	movf	??_set_time+2,w
  4826  0630  1683               	bsf	3,5	;RP0=1, select bank1
  4827  0631  1303               	bcf	3,6	;RP1=0, select bank1
  4828  0632  00A5               	movwf	(set_time@new_time^(0+128)+5)
  4829                           
  4830                           ;car_black_box_def.c: 505:         }
  4831  0633  2E42               	goto	l4877
  4832  0634                     l4873:
  4833                           
  4834                           ;car_black_box_def.c: 507:         {;car_black_box_def.c: 508:             new_time[4] =
      +                           ' ';
  4835  0634  3020               	movlw	32
  4836  0635  00B1               	movwf	??_set_time
  4837  0636  0831               	movf	??_set_time,w
  4838  0637  1683               	bsf	3,5	;RP0=1, select bank1
  4839  0638  1303               	bcf	3,6	;RP1=0, select bank1
  4840  0639  00A4               	movwf	(set_time@new_time^(0+128)+4)
  4841                           
  4842                           ;car_black_box_def.c: 509:             new_time[5] = ' ';
  4843  063A  3020               	movlw	32
  4844  063B  1283               	bcf	3,5	;RP0=0, select bank0
  4845  063C  1303               	bcf	3,6	;RP1=0, select bank0
  4846  063D  00B1               	movwf	??_set_time
  4847  063E  0831               	movf	??_set_time,w
  4848  063F  1683               	bsf	3,5	;RP0=1, select bank1
  4849  0640  1303               	bcf	3,6	;RP1=0, select bank1
  4850  0641  00A5               	movwf	(set_time@new_time^(0+128)+5)
  4851  0642                     l4877:
  4852                           
  4853                           ;car_black_box_def.c: 517:     if(minute_flag)
  4854  0642  1283               	bcf	3,5	;RP0=0, select bank0
  4855  0643  1303               	bcf	3,6	;RP1=0, select bank0
  4856  0644  0845               	movf	set_time@minute_flag,w
  4857  0645  1903               	btfsc	3,2
  4858  0646  2E48               	goto	u4421
  4859  0647  2E49               	goto	u4420
  4860  0648                     u4421:
  4861  0648  2E4E               	goto	l4881
  4862  0649                     u4420:
  4863  0649                     l4879:
  4864                           
  4865                           ;car_black_box_def.c: 518:     {;car_black_box_def.c: 519:         if(flag)
  4866  0649  0842               	movf	set_time@flag,w
  4867  064A  1903               	btfsc	3,2
  4868  064B  2E4D               	goto	u4431
  4869  064C  2E4E               	goto	u4430
  4870  064D                     u4431:
  4871  064D  2E92               	goto	l4883
  4872  064E                     u4430:
  4873  064E                     l4881:
  4874                           
  4875                           ;car_black_box_def.c: 520:         {;car_black_box_def.c: 521:             new_time[2] =
      +                           (minute / 10) % 10 + '0';
  4876  064E  300A               	movlw	10
  4877  064F  00A8               	movwf	___awmod@divisor
  4878  0650  3000               	movlw	0
  4879  0651  00A9               	movwf	___awmod@divisor+1
  4880  0652  300A               	movlw	10
  4881  0653  00A0               	movwf	___awdiv@divisor
  4882  0654  3000               	movlw	0
  4883  0655  00A1               	movwf	___awdiv@divisor+1
  4884  0656  0851               	movf	_minute,w
  4885  0657  00B1               	movwf	??_set_time
  4886  0658  01B2               	clrf	??_set_time+1
  4887  0659  0831               	movf	??_set_time,w
  4888  065A  00A2               	movwf	___awdiv@dividend
  4889  065B  0832               	movf	??_set_time+1,w
  4890  065C  00A3               	movwf	___awdiv@dividend+1
  4891  065D  160A  118A  26D0  120A  118A  	fcall	___awdiv
  4892  0662  1283               	bcf	3,5	;RP0=0, select bank0
  4893  0663  1303               	bcf	3,6	;RP1=0, select bank0
  4894  0664  0821               	movf	?___awdiv+1,w
  4895  0665  00AB               	movwf	___awmod@dividend+1
  4896  0666  0820               	movf	?___awdiv,w
  4897  0667  00AA               	movwf	___awmod@dividend
  4898  0668  160A  118A  254C  120A  118A  	fcall	___awmod
  4899  066D  1283               	bcf	3,5	;RP0=0, select bank0
  4900  066E  1303               	bcf	3,6	;RP1=0, select bank0
  4901  066F  0828               	movf	?___awmod,w
  4902  0670  3E30               	addlw	48
  4903  0671  00B3               	movwf	??_set_time+2
  4904  0672  0833               	movf	??_set_time+2,w
  4905  0673  1683               	bsf	3,5	;RP0=1, select bank1
  4906  0674  1303               	bcf	3,6	;RP1=0, select bank1
  4907  0675  00A2               	movwf	(set_time@new_time^(0+128)+2)
  4908                           
  4909                           ;car_black_box_def.c: 522:             new_time[3] = (minute / 1) % 10 + '0';
  4910  0676  300A               	movlw	10
  4911  0677  1283               	bcf	3,5	;RP0=0, select bank0
  4912  0678  1303               	bcf	3,6	;RP1=0, select bank0
  4913  0679  00A8               	movwf	___awmod@divisor
  4914  067A  3000               	movlw	0
  4915  067B  00A9               	movwf	___awmod@divisor+1
  4916  067C  0851               	movf	_minute,w
  4917  067D  00B1               	movwf	??_set_time
  4918  067E  01B2               	clrf	??_set_time+1
  4919  067F  0831               	movf	??_set_time,w
  4920  0680  00AA               	movwf	___awmod@dividend
  4921  0681  0832               	movf	??_set_time+1,w
  4922  0682  00AB               	movwf	___awmod@dividend+1
  4923  0683  160A  118A  254C  120A  118A  	fcall	___awmod
  4924  0688  1283               	bcf	3,5	;RP0=0, select bank0
  4925  0689  1303               	bcf	3,6	;RP1=0, select bank0
  4926  068A  0828               	movf	?___awmod,w
  4927  068B  3E30               	addlw	48
  4928  068C  00B3               	movwf	??_set_time+2
  4929  068D  0833               	movf	??_set_time+2,w
  4930  068E  1683               	bsf	3,5	;RP0=1, select bank1
  4931  068F  1303               	bcf	3,6	;RP1=0, select bank1
  4932  0690  00A3               	movwf	(set_time@new_time^(0+128)+3)
  4933                           
  4934                           ;car_black_box_def.c: 523:         }
  4935  0691  2EA0               	goto	l4887
  4936  0692                     l4883:
  4937                           
  4938                           ;car_black_box_def.c: 525:         {;car_black_box_def.c: 526:             new_time[2] =
      +                           ' ';
  4939  0692  3020               	movlw	32
  4940  0693  00B1               	movwf	??_set_time
  4941  0694  0831               	movf	??_set_time,w
  4942  0695  1683               	bsf	3,5	;RP0=1, select bank1
  4943  0696  1303               	bcf	3,6	;RP1=0, select bank1
  4944  0697  00A2               	movwf	(set_time@new_time^(0+128)+2)
  4945                           
  4946                           ;car_black_box_def.c: 527:             new_time[3] = ' ';
  4947  0698  3020               	movlw	32
  4948  0699  1283               	bcf	3,5	;RP0=0, select bank0
  4949  069A  1303               	bcf	3,6	;RP1=0, select bank0
  4950  069B  00B1               	movwf	??_set_time
  4951  069C  0831               	movf	??_set_time,w
  4952  069D  1683               	bsf	3,5	;RP0=1, select bank1
  4953  069E  1303               	bcf	3,6	;RP1=0, select bank1
  4954  069F  00A3               	movwf	(set_time@new_time^(0+128)+3)
  4955  06A0                     l4887:
  4956                           
  4957                           ;car_black_box_def.c: 536:     if(hour_flag)
  4958  06A0  1283               	bcf	3,5	;RP0=0, select bank0
  4959  06A1  1303               	bcf	3,6	;RP1=0, select bank0
  4960  06A2  0844               	movf	set_time@hour_flag,w
  4961  06A3  1903               	btfsc	3,2
  4962  06A4  2EA6               	goto	u4441
  4963  06A5  2EA7               	goto	u4440
  4964  06A6                     u4441:
  4965  06A6  2EAC               	goto	l4891
  4966  06A7                     u4440:
  4967  06A7                     l4889:
  4968                           
  4969                           ;car_black_box_def.c: 537:     {;car_black_box_def.c: 538:         if(flag)
  4970  06A7  0842               	movf	set_time@flag,w
  4971  06A8  1903               	btfsc	3,2
  4972  06A9  2EAB               	goto	u4451
  4973  06AA  2EAC               	goto	u4450
  4974  06AB                     u4451:
  4975  06AB  2EF0               	goto	l4893
  4976  06AC                     u4450:
  4977  06AC                     l4891:
  4978                           
  4979                           ;car_black_box_def.c: 539:         {;car_black_box_def.c: 540:             new_time[0] =
      +                           (hour / 10) % 10 + '0';
  4980  06AC  300A               	movlw	10
  4981  06AD  00A8               	movwf	___awmod@divisor
  4982  06AE  3000               	movlw	0
  4983  06AF  00A9               	movwf	___awmod@divisor+1
  4984  06B0  300A               	movlw	10
  4985  06B1  00A0               	movwf	___awdiv@divisor
  4986  06B2  3000               	movlw	0
  4987  06B3  00A1               	movwf	___awdiv@divisor+1
  4988  06B4  0850               	movf	_hour,w
  4989  06B5  00B1               	movwf	??_set_time
  4990  06B6  01B2               	clrf	??_set_time+1
  4991  06B7  0831               	movf	??_set_time,w
  4992  06B8  00A2               	movwf	___awdiv@dividend
  4993  06B9  0832               	movf	??_set_time+1,w
  4994  06BA  00A3               	movwf	___awdiv@dividend+1
  4995  06BB  160A  118A  26D0  120A  118A  	fcall	___awdiv
  4996  06C0  1283               	bcf	3,5	;RP0=0, select bank0
  4997  06C1  1303               	bcf	3,6	;RP1=0, select bank0
  4998  06C2  0821               	movf	?___awdiv+1,w
  4999  06C3  00AB               	movwf	___awmod@dividend+1
  5000  06C4  0820               	movf	?___awdiv,w
  5001  06C5  00AA               	movwf	___awmod@dividend
  5002  06C6  160A  118A  254C  120A  118A  	fcall	___awmod
  5003  06CB  1283               	bcf	3,5	;RP0=0, select bank0
  5004  06CC  1303               	bcf	3,6	;RP1=0, select bank0
  5005  06CD  0828               	movf	?___awmod,w
  5006  06CE  3E30               	addlw	48
  5007  06CF  00B3               	movwf	??_set_time+2
  5008  06D0  0833               	movf	??_set_time+2,w
  5009  06D1  1683               	bsf	3,5	;RP0=1, select bank1
  5010  06D2  1303               	bcf	3,6	;RP1=0, select bank1
  5011  06D3  00A0               	movwf	set_time@new_time^(0+128)
  5012                           
  5013                           ;car_black_box_def.c: 541:             new_time[1] = (hour / 1) % 10 + '0';
  5014  06D4  300A               	movlw	10
  5015  06D5  1283               	bcf	3,5	;RP0=0, select bank0
  5016  06D6  1303               	bcf	3,6	;RP1=0, select bank0
  5017  06D7  00A8               	movwf	___awmod@divisor
  5018  06D8  3000               	movlw	0
  5019  06D9  00A9               	movwf	___awmod@divisor+1
  5020  06DA  0850               	movf	_hour,w
  5021  06DB  00B1               	movwf	??_set_time
  5022  06DC  01B2               	clrf	??_set_time+1
  5023  06DD  0831               	movf	??_set_time,w
  5024  06DE  00AA               	movwf	___awmod@dividend
  5025  06DF  0832               	movf	??_set_time+1,w
  5026  06E0  00AB               	movwf	___awmod@dividend+1
  5027  06E1  160A  118A  254C  120A  118A  	fcall	___awmod
  5028  06E6  1283               	bcf	3,5	;RP0=0, select bank0
  5029  06E7  1303               	bcf	3,6	;RP1=0, select bank0
  5030  06E8  0828               	movf	?___awmod,w
  5031  06E9  3E30               	addlw	48
  5032  06EA  00B3               	movwf	??_set_time+2
  5033  06EB  0833               	movf	??_set_time+2,w
  5034  06EC  1683               	bsf	3,5	;RP0=1, select bank1
  5035  06ED  1303               	bcf	3,6	;RP1=0, select bank1
  5036  06EE  00A1               	movwf	(set_time@new_time^(0+128)+1)
  5037                           
  5038                           ;car_black_box_def.c: 542:         }
  5039  06EF  2EFE               	goto	l486
  5040  06F0                     l4893:
  5041                           
  5042                           ;car_black_box_def.c: 544:         {;car_black_box_def.c: 545:             new_time[0] =
      +                           ' ';
  5043  06F0  3020               	movlw	32
  5044  06F1  00B1               	movwf	??_set_time
  5045  06F2  0831               	movf	??_set_time,w
  5046  06F3  1683               	bsf	3,5	;RP0=1, select bank1
  5047  06F4  1303               	bcf	3,6	;RP1=0, select bank1
  5048  06F5  00A0               	movwf	set_time@new_time^(0+128)
  5049                           
  5050                           ;car_black_box_def.c: 546:             new_time[1] = ' ';
  5051  06F6  3020               	movlw	32
  5052  06F7  1283               	bcf	3,5	;RP0=0, select bank0
  5053  06F8  1303               	bcf	3,6	;RP1=0, select bank0
  5054  06F9  00B1               	movwf	??_set_time
  5055  06FA  0831               	movf	??_set_time,w
  5056  06FB  1683               	bsf	3,5	;RP0=1, select bank1
  5057  06FC  1303               	bcf	3,6	;RP1=0, select bank1
  5058  06FD  00A1               	movwf	(set_time@new_time^(0+128)+1)
  5059  06FE                     l486:	
  5060                           ;car_black_box_def.c: 553:     }
  5061                           
  5062                           
  5063                           ;car_black_box_def.c: 556:     clcd_putch(new_time[0], (0xC0 + 4));
  5064  06FE  30C4               	movlw	196
  5065  06FF  1283               	bcf	3,5	;RP0=0, select bank0
  5066  0700  1303               	bcf	3,6	;RP1=0, select bank0
  5067  0701  00B1               	movwf	??_set_time
  5068  0702  0831               	movf	??_set_time,w
  5069  0703  00AE               	movwf	clcd_putch@addr
  5070  0704  1683               	bsf	3,5	;RP0=1, select bank1
  5071  0705  1303               	bcf	3,6	;RP1=0, select bank1
  5072  0706  0820               	movf	set_time@new_time^(0+128),w
  5073  0707  160A  158A  2782  120A  118A  	fcall	_clcd_putch
  5074                           
  5075                           ;car_black_box_def.c: 557:     clcd_putch(new_time[1], (0xC0 + 5));
  5076  070C  30C5               	movlw	197
  5077  070D  1283               	bcf	3,5	;RP0=0, select bank0
  5078  070E  1303               	bcf	3,6	;RP1=0, select bank0
  5079  070F  00B1               	movwf	??_set_time
  5080  0710  0831               	movf	??_set_time,w
  5081  0711  00AE               	movwf	clcd_putch@addr
  5082  0712  1683               	bsf	3,5	;RP0=1, select bank1
  5083  0713  1303               	bcf	3,6	;RP1=0, select bank1
  5084  0714  0821               	movf	(set_time@new_time^(0+128)+1),w
  5085  0715  160A  158A  2782  120A  118A  	fcall	_clcd_putch
  5086                           
  5087                           ;car_black_box_def.c: 558:     clcd_putch(':', (0xC0 + 6));
  5088  071A  30C6               	movlw	198
  5089  071B  1283               	bcf	3,5	;RP0=0, select bank0
  5090  071C  1303               	bcf	3,6	;RP1=0, select bank0
  5091  071D  00B1               	movwf	??_set_time
  5092  071E  0831               	movf	??_set_time,w
  5093  071F  00AE               	movwf	clcd_putch@addr
  5094  0720  303A               	movlw	58
  5095  0721  160A  158A  2782  120A  118A  	fcall	_clcd_putch
  5096                           
  5097                           ;car_black_box_def.c: 559:     clcd_putch(new_time[2], (0xC0 + 7));
  5098  0726  30C7               	movlw	199
  5099  0727  1283               	bcf	3,5	;RP0=0, select bank0
  5100  0728  1303               	bcf	3,6	;RP1=0, select bank0
  5101  0729  00B1               	movwf	??_set_time
  5102  072A  0831               	movf	??_set_time,w
  5103  072B  00AE               	movwf	clcd_putch@addr
  5104  072C  1683               	bsf	3,5	;RP0=1, select bank1
  5105  072D  1303               	bcf	3,6	;RP1=0, select bank1
  5106  072E  0822               	movf	(set_time@new_time^(0+128)+2),w
  5107  072F  160A  158A  2782  120A  118A  	fcall	_clcd_putch
  5108                           
  5109                           ;car_black_box_def.c: 560:     clcd_putch(new_time[3], (0xC0 + 8));
  5110  0734  30C8               	movlw	200
  5111  0735  1283               	bcf	3,5	;RP0=0, select bank0
  5112  0736  1303               	bcf	3,6	;RP1=0, select bank0
  5113  0737  00B1               	movwf	??_set_time
  5114  0738  0831               	movf	??_set_time,w
  5115  0739  00AE               	movwf	clcd_putch@addr
  5116  073A  1683               	bsf	3,5	;RP0=1, select bank1
  5117  073B  1303               	bcf	3,6	;RP1=0, select bank1
  5118  073C  0823               	movf	(set_time@new_time^(0+128)+3),w
  5119  073D  160A  158A  2782  120A  118A  	fcall	_clcd_putch
  5120                           
  5121                           ;car_black_box_def.c: 561:     clcd_putch(':', (0xC0 + 9));
  5122  0742  30C9               	movlw	201
  5123  0743  1283               	bcf	3,5	;RP0=0, select bank0
  5124  0744  1303               	bcf	3,6	;RP1=0, select bank0
  5125  0745  00B1               	movwf	??_set_time
  5126  0746  0831               	movf	??_set_time,w
  5127  0747  00AE               	movwf	clcd_putch@addr
  5128  0748  303A               	movlw	58
  5129  0749  160A  158A  2782  120A  118A  	fcall	_clcd_putch
  5130                           
  5131                           ;car_black_box_def.c: 562:     clcd_putch(new_time[4], (0xC0 + 10));
  5132  074E  30CA               	movlw	202
  5133  074F  1283               	bcf	3,5	;RP0=0, select bank0
  5134  0750  1303               	bcf	3,6	;RP1=0, select bank0
  5135  0751  00B1               	movwf	??_set_time
  5136  0752  0831               	movf	??_set_time,w
  5137  0753  00AE               	movwf	clcd_putch@addr
  5138  0754  1683               	bsf	3,5	;RP0=1, select bank1
  5139  0755  1303               	bcf	3,6	;RP1=0, select bank1
  5140  0756  0824               	movf	(set_time@new_time^(0+128)+4),w
  5141  0757  160A  158A  2782  120A  118A  	fcall	_clcd_putch
  5142                           
  5143                           ;car_black_box_def.c: 563:     clcd_putch(new_time[5], (0xC0 + 11));
  5144  075C  30CB               	movlw	203
  5145  075D  1283               	bcf	3,5	;RP0=0, select bank0
  5146  075E  1303               	bcf	3,6	;RP1=0, select bank0
  5147  075F  00B1               	movwf	??_set_time
  5148  0760  0831               	movf	??_set_time,w
  5149  0761  00AE               	movwf	clcd_putch@addr
  5150  0762  1683               	bsf	3,5	;RP0=1, select bank1
  5151  0763  1303               	bcf	3,6	;RP1=0, select bank1
  5152  0764  0825               	movf	(set_time@new_time^(0+128)+5),w
  5153  0765  160A  158A  2782  120A  118A  	fcall	_clcd_putch
  5154  076A                     l4897:
  5155                           
  5156                           ;car_black_box_def.c: 566:     if(delay++ == 8)
  5157  076A  3001               	movlw	1
  5158  076B  1283               	bcf	3,5	;RP0=0, select bank0
  5159  076C  1303               	bcf	3,6	;RP1=0, select bank0
  5160  076D  00B1               	movwf	??_set_time
  5161  076E  0831               	movf	??_set_time,w
  5162  076F  07C3               	addwf	set_time@delay,f
  5163  0770  3009               	movlw	9
  5164  0771  0643               	xorwf	set_time@delay,w
  5165  0772  1D03               	btfss	3,2
  5166  0773  2F75               	goto	u4461
  5167  0774  2F76               	goto	u4460
  5168  0775                     u4461:
  5169  0775  2F81               	goto	l488
  5170  0776                     u4460:
  5171  0776                     l4899:
  5172                           
  5173                           ;car_black_box_def.c: 567:     {;car_black_box_def.c: 568:         delay = 0;
  5174  0776  01C3               	clrf	set_time@delay
  5175  0777                     l4901:
  5176                           
  5177                           ;car_black_box_def.c: 569:         flag = !flag;
  5178  0777  0842               	movf	set_time@flag,w
  5179  0778  1903               	btfsc	3,2
  5180  0779  2F7B               	goto	u4471
  5181  077A  2F7D               	goto	u4470
  5182  077B                     u4471:
  5183  077B  3001               	movlw	1
  5184  077C  2F7E               	goto	u4480
  5185  077D                     u4470:
  5186  077D  3000               	movlw	0
  5187  077E                     u4480:
  5188  077E  00B1               	movwf	??_set_time
  5189  077F  0831               	movf	??_set_time,w
  5190  0780  00C2               	movwf	set_time@flag
  5191  0781                     l488:
  5192  0781  0008               	return
  5193  0782                     __end_of_set_time:
  5194                           
  5195                           	psect	text4
  5196  1224                     __ptext4:	
  5197 ;; *************** function _read_digital_keypad *****************
  5198 ;; Defined at:
  5199 ;;		line 10 in file "digital_keypad.c"
  5200 ;; Parameters:    Size  Location     Type
  5201 ;;  mode            1    wreg     unsigned char 
  5202 ;; Auto vars:     Size  Location     Type
  5203 ;;  mode            1    5[COMMON] unsigned char 
  5204 ;; Return value:  Size  Location     Type
  5205 ;;                  1    wreg      unsigned char 
  5206 ;; Registers used:
  5207 ;;		wreg, status,2, status,0
  5208 ;; Tracked objects:
  5209 ;;		On entry : 0/0
  5210 ;;		On exit  : 0/0
  5211 ;;		Unchanged: 0/0
  5212 ;; Data sizes:     COMMON   BANK0   BANK1   BANK3   BANK2
  5213 ;;      Params:         0       0       0       0       0
  5214 ;;      Locals:         1       0       0       0       0
  5215 ;;      Temps:          1       0       0       0       0
  5216 ;;      Totals:         2       0       0       0       0
  5217 ;;Total ram usage:        2 bytes
  5218 ;; Hardware stack levels used: 1
  5219 ;; Hardware stack levels required when called: 1
  5220 ;; This function calls:
  5221 ;;		Nothing
  5222 ;; This function is called by:
  5223 ;;		_main
  5224 ;; This function uses a non-reentrant model
  5225 ;;
  5226                           
  5227                           
  5228                           ;psect for function _read_digital_keypad
  5229  1224                     _read_digital_keypad:
  5230                           
  5231                           ;incstack = 0
  5232                           ; Regs used in _read_digital_keypad: [wreg+status,2+status,0]
  5233                           ;read_digital_keypad@mode stored from wreg
  5234  1224  00F5               	movwf	read_digital_keypad@mode
  5235  1225                     l4443:
  5236                           
  5237                           ;digital_keypad.c: 10: unsigned char read_digital_keypad(unsigned char mode);digital_key
      +                          pad.c: 11: {;digital_keypad.c: 12:     static unsigned char once = 1;;digital_keypad.c: 
      +                          14:     if (mode == 0)
  5238  1225  0875               	movf	read_digital_keypad@mode,w
  5239  1226  1D03               	btfss	3,2
  5240  1227  2A29               	goto	u3901
  5241  1228  2A2A               	goto	u3900
  5242  1229                     u3901:
  5243  1229  2A2F               	goto	l4451
  5244  122A                     u3900:
  5245  122A                     l4445:
  5246                           
  5247                           ;digital_keypad.c: 15:     {;digital_keypad.c: 16:         return PORTB & 0x3F;
  5248  122A  1283               	bcf	3,5	;RP0=0, select bank0
  5249  122B  1303               	bcf	3,6	;RP1=0, select bank0
  5250  122C  0806               	movf	6,w	;volatile
  5251  122D  393F               	andlw	63
  5252  122E  2A4D               	goto	l249
  5253  122F                     l4451:
  5254                           
  5255                           ;digital_keypad.c: 19:     {;digital_keypad.c: 20:         if (((PORTB & 0x3F) != 0x3F) 
      +                          && once)
  5256  122F  303F               	movlw	63
  5257  1230  1283               	bcf	3,5	;RP0=0, select bank0
  5258  1231  1303               	bcf	3,6	;RP1=0, select bank0
  5259  1232  0506               	andwf	6,w	;volatile
  5260  1233  00F4               	movwf	??_read_digital_keypad
  5261  1234  303F               	movlw	63
  5262  1235  0674               	xorwf	??_read_digital_keypad,w
  5263  1236  1903               	btfsc	3,2
  5264  1237  2A39               	goto	u3911
  5265  1238  2A3A               	goto	u3910
  5266  1239                     u3911:
  5267  1239  2A41               	goto	l4463
  5268  123A                     u3910:
  5269  123A                     l4453:
  5270  123A  0853               	movf	read_digital_keypad@once,w
  5271  123B  1903               	btfsc	3,2
  5272  123C  2A3E               	goto	u3921
  5273  123D  2A3F               	goto	u3920
  5274  123E                     u3921:
  5275  123E  2A41               	goto	l4463
  5276  123F                     u3920:
  5277  123F                     l4455:
  5278                           
  5279                           ;digital_keypad.c: 21:         {;digital_keypad.c: 22:             once = 0;
  5280  123F  01D3               	clrf	read_digital_keypad@once
  5281  1240  2A2A               	goto	l4445
  5282  1241                     l4463:
  5283  1241  303F               	movlw	63
  5284  1242  0506               	andwf	6,w	;volatile
  5285  1243  00F4               	movwf	??_read_digital_keypad
  5286  1244  303F               	movlw	63
  5287  1245  0674               	xorwf	??_read_digital_keypad,w
  5288  1246  1D03               	btfss	3,2
  5289  1247  2A49               	goto	u3931
  5290  1248  2A4A               	goto	u3930
  5291  1249                     u3931:
  5292  1249  2A4C               	goto	l4467
  5293  124A                     u3930:
  5294  124A                     l4465:
  5295                           
  5296                           ;digital_keypad.c: 27:         {;digital_keypad.c: 28:             once = 1;
  5297  124A  01D3               	clrf	read_digital_keypad@once
  5298  124B  0AD3               	incf	read_digital_keypad@once,f
  5299  124C                     l4467:
  5300                           
  5301                           ;digital_keypad.c: 32:     return 0x3F;
  5302  124C  303F               	movlw	63
  5303  124D                     l249:
  5304  124D  0008               	return
  5305  124E                     __end_of_read_digital_keypad:
  5306                           
  5307                           	psect	text5
  5308  1F6E                     __ptext5:	
  5309 ;; *************** function _read_adc *****************
  5310 ;; Defined at:
  5311 ;;		line 12 in file "adc.c"
  5312 ;; Parameters:    Size  Location     Type
  5313 ;;		None
  5314 ;; Auto vars:     Size  Location     Type
  5315 ;;  adc_reg_val     2    0[BANK0 ] unsigned short 
  5316 ;; Return value:  Size  Location     Type
  5317 ;;                  2    4[COMMON] unsigned short 
  5318 ;; Registers used:
  5319 ;;		wreg
  5320 ;; Tracked objects:
  5321 ;;		On entry : 0/0
  5322 ;;		On exit  : 0/0
  5323 ;;		Unchanged: 0/0
  5324 ;; Data sizes:     COMMON   BANK0   BANK1   BANK3   BANK2
  5325 ;;      Params:         2       0       0       0       0
  5326 ;;      Locals:         0       2       0       0       0
  5327 ;;      Temps:          0       0       0       0       0
  5328 ;;      Totals:         2       2       0       0       0
  5329 ;;Total ram usage:        4 bytes
  5330 ;; Hardware stack levels used: 1
  5331 ;; Hardware stack levels required when called: 1
  5332 ;; This function calls:
  5333 ;;		Nothing
  5334 ;; This function is called by:
  5335 ;;		_main
  5336 ;; This function uses a non-reentrant model
  5337 ;;
  5338                           
  5339                           
  5340                           ;psect for function _read_adc
  5341  1F6E                     _read_adc:
  5342  1F6E                     l4501:	
  5343                           ;incstack = 0
  5344                           ; Regs used in _read_adc: [wreg]
  5345                           
  5346                           
  5347                           ;adc.c: 14:     unsigned short adc_reg_val;;adc.c: 17:     GO = 1;
  5348  1F6E  1283               	bcf	3,5	;RP0=0, select bank0
  5349  1F6F  1303               	bcf	3,6	;RP1=0, select bank0
  5350  1F70  151F               	bsf	31,2	;volatile
  5351  1F71                     l293:	
  5352                           ;adc.c: 20:     while (nDONE);
  5353                           
  5354  1F71  191F               	btfsc	31,2	;volatile
  5355  1F72  2F74               	goto	u3961
  5356  1F73  2F75               	goto	u3960
  5357  1F74                     u3961:
  5358  1F74  2F71               	goto	l293
  5359  1F75                     u3960:
  5360  1F75                     l4503:
  5361                           
  5362                           ;adc.c: 23:     adc_reg_val = (ADRESH << 8) | ADRESL;
  5363  1F75  081E               	movf	30,w	;volatile
  5364  1F76  00A1               	movwf	read_adc@adc_reg_val+1
  5365  1F77  1683               	bsf	3,5	;RP0=1, select bank1
  5366  1F78  1303               	bcf	3,6	;RP1=0, select bank1
  5367  1F79  081E               	movf	30,w	;volatile
  5368  1F7A  1283               	bcf	3,5	;RP0=0, select bank0
  5369  1F7B  1303               	bcf	3,6	;RP1=0, select bank0
  5370  1F7C  00A0               	movwf	read_adc@adc_reg_val
  5371                           
  5372                           ;adc.c: 25:     return adc_reg_val;
  5373  1F7D  0821               	movf	read_adc@adc_reg_val+1,w
  5374  1F7E  00F5               	movwf	?_read_adc+1
  5375  1F7F  0820               	movf	read_adc@adc_reg_val,w
  5376  1F80  00F4               	movwf	?_read_adc
  5377  1F81                     l296:
  5378  1F81  0008               	return
  5379  1F82                     __end_of_read_adc:
  5380                           
  5381                           	psect	text6
  5382  0849                     __ptext6:	
  5383 ;; *************** function _login_menu *****************
  5384 ;; Defined at:
  5385 ;;		line 192 in file "car_black_box_def.c"
  5386 ;; Parameters:    Size  Location     Type
  5387 ;;  reset_flag      1    wreg     unsigned char 
  5388 ;;  key             1   16[BANK0 ] unsigned char 
  5389 ;; Auto vars:     Size  Location     Type
  5390 ;;  reset_flag      1   20[BANK0 ] unsigned char 
  5391 ;; Return value:  Size  Location     Type
  5392 ;;                  1    wreg      unsigned char 
  5393 ;; Registers used:
  5394 ;;		wreg, fsr0l, fsr0h, status,2, status,0, btemp+1, pclath, cstack
  5395 ;; Tracked objects:
  5396 ;;		On entry : 0/0
  5397 ;;		On exit  : 0/0
  5398 ;;		Unchanged: 0/0
  5399 ;; Data sizes:     COMMON   BANK0   BANK1   BANK3   BANK2
  5400 ;;      Params:         0       1       0       0       0
  5401 ;;      Locals:         0       1       0       0       0
  5402 ;;      Temps:          0       3       0       0       0
  5403 ;;      Totals:         0       5       0       0       0
  5404 ;;Total ram usage:        5 bytes
  5405 ;; Hardware stack levels used: 1
  5406 ;; Hardware stack levels required when called: 3
  5407 ;; This function calls:
  5408 ;;		_clcd_print
  5409 ;;		_clcd_putch
  5410 ;;		_clear_screen
  5411 ;; This function is called by:
  5412 ;;		_main
  5413 ;; This function uses a non-reentrant model
  5414 ;;
  5415                           
  5416                           
  5417                           ;psect for function _login_menu
  5418  0849                     _login_menu:
  5419                           
  5420                           ;incstack = 0
  5421                           ; Regs used in _login_menu: [wreg-fsr0h+status,2+status,0+btemp+1+pclath+cstack]
  5422                           ;login_menu@reset_flag stored from wreg
  5423  0849  1283               	bcf	3,5	;RP0=0, select bank0
  5424  084A  1303               	bcf	3,6	;RP1=0, select bank0
  5425  084B  00B4               	movwf	login_menu@reset_flag
  5426  084C                     l4621:
  5427                           
  5428                           ;car_black_box_def.c: 192: unsigned char login_menu(unsigned char reset_flag, unsigned c
      +                          har key);car_black_box_def.c: 193: {;car_black_box_def.c: 194:     static char menu_pos;
      +                          ;car_black_box_def.c: 195:     if(reset_flag == 0x11)
  5429  084C  3011               	movlw	17
  5430  084D  0634               	xorwf	login_menu@reset_flag,w
  5431  084E  1D03               	btfss	3,2
  5432  084F  2851               	goto	u4081
  5433  0850  2852               	goto	u4080
  5434  0851                     u4081:
  5435  0851  2864               	goto	l4631
  5436  0852                     u4080:
  5437  0852                     l4623:
  5438                           
  5439                           ;car_black_box_def.c: 196:     {;car_black_box_def.c: 197:         menu_pos = 0;
  5440  0852  01CB               	clrf	login_menu@menu_pos
  5441  0853                     l4625:
  5442                           
  5443                           ;car_black_box_def.c: 198:         clear_screen();
  5444  0853  160A  158A  2749  120A  158A  	fcall	_clear_screen
  5445  0858                     l4627:
  5446                           
  5447                           ;car_black_box_def.c: 199:         return_time = 5;
  5448  0858  3005               	movlw	5
  5449  0859  1683               	bsf	3,5	;RP0=1, select bank1
  5450  085A  1303               	bcf	3,6	;RP1=0, select bank1
  5451  085B  00A9               	movwf	_return_time^(0+128)
  5452  085C  3000               	movlw	0
  5453  085D  00AA               	movwf	(_return_time^(0+128)+1)
  5454  085E                     l4629:
  5455                           
  5456                           ;car_black_box_def.c: 200:         key = 0x3F;
  5457  085E  303F               	movlw	63
  5458  085F  1283               	bcf	3,5	;RP0=0, select bank0
  5459  0860  1303               	bcf	3,6	;RP1=0, select bank0
  5460  0861  00B1               	movwf	??_login_menu
  5461  0862  0831               	movf	??_login_menu,w
  5462  0863  00B0               	movwf	login_menu@key
  5463  0864                     l4631:
  5464                           
  5465                           ;car_black_box_def.c: 202:     if(return_time == 0)
  5466  0864  1683               	bsf	3,5	;RP0=1, select bank1
  5467  0865  1303               	bcf	3,6	;RP1=0, select bank1
  5468  0866  0829               	movf	_return_time^(0+128),w
  5469  0867  042A               	iorwf	(_return_time+1)^(0+128),w
  5470  0868  1D03               	btfss	3,2
  5471  0869  286B               	goto	u4091
  5472  086A  286C               	goto	u4090
  5473  086B                     u4091:
  5474  086B  286E               	goto	l4637
  5475  086C                     u4090:
  5476  086C                     l4633:
  5477                           
  5478                           ;car_black_box_def.c: 203:         return 0x22;
  5479  086C  3022               	movlw	34
  5480  086D  291B               	goto	l394
  5481  086E                     l4637:
  5482                           
  5483                           ;car_black_box_def.c: 204:     if(key == 0x2F && menu_pos < 4)
  5484  086E  302F               	movlw	47
  5485  086F  1283               	bcf	3,5	;RP0=0, select bank0
  5486  0870  1303               	bcf	3,6	;RP1=0, select bank0
  5487  0871  0630               	xorwf	login_menu@key,w
  5488  0872  1D03               	btfss	3,2
  5489  0873  2875               	goto	u4101
  5490  0874  2876               	goto	u4100
  5491  0875                     u4101:
  5492  0875  288C               	goto	l4647
  5493  0876                     u4100:
  5494  0876                     l4639:
  5495  0876  3004               	movlw	4
  5496  0877  024B               	subwf	login_menu@menu_pos,w
  5497  0878  1803               	skipnc
  5498  0879  287B               	goto	u4111
  5499  087A  287C               	goto	u4110
  5500  087B                     u4111:
  5501  087B  288C               	goto	l4647
  5502  087C                     u4110:
  5503  087C                     l4641:
  5504                           
  5505                           ;car_black_box_def.c: 205:     {;car_black_box_def.c: 206:         menu_pos++;
  5506  087C  3001               	movlw	1
  5507  087D  00B1               	movwf	??_login_menu
  5508  087E  0831               	movf	??_login_menu,w
  5509  087F  07CB               	addwf	login_menu@menu_pos,f
  5510  0880                     l4643:
  5511                           
  5512                           ;car_black_box_def.c: 207:         clear_screen();
  5513  0880  160A  158A  2749  120A  158A  	fcall	_clear_screen
  5514  0885                     l4645:
  5515                           
  5516                           ;car_black_box_def.c: 208:         return_time = 5;
  5517  0885  3005               	movlw	5
  5518  0886  1683               	bsf	3,5	;RP0=1, select bank1
  5519  0887  1303               	bcf	3,6	;RP1=0, select bank1
  5520  0888  00A9               	movwf	_return_time^(0+128)
  5521  0889  3000               	movlw	0
  5522  088A  00AA               	movwf	(_return_time^(0+128)+1)
  5523                           
  5524                           ;car_black_box_def.c: 209:     }
  5525  088B  289A               	goto	l4657
  5526  088C                     l4647:
  5527  088C  3037               	movlw	55
  5528  088D  0630               	xorwf	login_menu@key,w
  5529  088E  1D03               	btfss	3,2
  5530  088F  2891               	goto	u4121
  5531  0890  2892               	goto	u4120
  5532  0891                     u4121:
  5533  0891  289A               	goto	l4657
  5534  0892                     u4120:
  5535  0892                     l4649:
  5536  0892  084B               	movf	login_menu@menu_pos,w
  5537  0893  1903               	btfsc	3,2
  5538  0894  2896               	goto	u4131
  5539  0895  2897               	goto	u4130
  5540  0896                     u4131:
  5541  0896  289A               	goto	l4657
  5542  0897                     u4130:
  5543  0897                     l4651:
  5544                           
  5545                           ;car_black_box_def.c: 211:     {;car_black_box_def.c: 212:         menu_pos--;
  5546  0897  3001               	movlw	1
  5547  0898  02CB               	subwf	login_menu@menu_pos,f
  5548  0899  2880               	goto	l4643
  5549  089A                     l4657:
  5550                           
  5551                           ;car_black_box_def.c: 216:     if(menu_pos < 4)
  5552  089A  3004               	movlw	4
  5553  089B  1283               	bcf	3,5	;RP0=0, select bank0
  5554  089C  024B               	subwf	login_menu@menu_pos,w
  5555  089D  1803               	skipnc
  5556  089E  28A0               	goto	u4141
  5557  089F  28A1               	goto	u4140
  5558  08A0                     u4141:
  5559  08A0  28DA               	goto	l4665
  5560  08A1                     u4140:
  5561  08A1                     l4659:
  5562                           
  5563                           ;car_black_box_def.c: 217:     {;car_black_box_def.c: 218:         clcd_putch('*', (0x80
      +                           + 0));
  5564  08A1  3080               	movlw	128
  5565  08A2  00B1               	movwf	??_login_menu
  5566  08A3  0831               	movf	??_login_menu,w
  5567  08A4  00AE               	movwf	clcd_putch@addr
  5568  08A5  302A               	movlw	42
  5569  08A6  160A  158A  2782  120A  158A  	fcall	_clcd_putch
  5570  08AB                     l4661:
  5571                           
  5572                           ;car_black_box_def.c: 219:         clcd_print(menu[menu_pos], (0x80 + 2));
  5573  08AB  1283               	bcf	3,5	;RP0=0, select bank0
  5574  08AC  1303               	bcf	3,6	;RP1=0, select bank0
  5575  08AD  084B               	movf	login_menu@menu_pos,w
  5576  08AE  00B1               	movwf	??_login_menu
  5577  08AF  0731               	addwf	??_login_menu,w
  5578  08B0  3ED5               	addlw	(low (_menu| 0))& (0+255)
  5579  08B1  0084               	movwf	4
  5580  08B2  1383               	bcf	3,7	;select IRP bank1
  5581  08B3  0800               	movf	0,w
  5582  08B4  00A1               	movwf	clcd_print@str
  5583  08B5  0A84               	incf	4,f
  5584  08B6  0800               	movf	0,w
  5585  08B7  0384               	decf	4,f
  5586  08B8  00A2               	movwf	clcd_print@str+1
  5587  08B9  3082               	movlw	130
  5588  08BA  00B3               	movwf	??_login_menu+2
  5589  08BB  0833               	movf	??_login_menu+2,w
  5590  08BC  00A3               	movwf	clcd_print@addr
  5591  08BD  160A  118A  22B1  120A  158A  	fcall	_clcd_print
  5592  08C2                     l4663:
  5593                           
  5594                           ;car_black_box_def.c: 220:         clcd_print(menu[menu_pos+1], (0xC0 + 2));
  5595  08C2  1283               	bcf	3,5	;RP0=0, select bank0
  5596  08C3  1303               	bcf	3,6	;RP1=0, select bank0
  5597  08C4  084B               	movf	login_menu@menu_pos,w
  5598  08C5  00B1               	movwf	??_login_menu
  5599  08C6  0731               	addwf	??_login_menu,w
  5600  08C7  3ED7               	addlw	(low ((_menu| 0+2)))& (0+255)
  5601  08C8  0084               	movwf	4
  5602  08C9  1383               	bcf	3,7	;select IRP bank1
  5603  08CA  0800               	movf	0,w
  5604  08CB  00A1               	movwf	clcd_print@str
  5605  08CC  0A84               	incf	4,f
  5606  08CD  0800               	movf	0,w
  5607  08CE  0384               	decf	4,f
  5608  08CF  00A2               	movwf	clcd_print@str+1
  5609  08D0  30C2               	movlw	194
  5610  08D1  00B3               	movwf	??_login_menu+2
  5611  08D2  0833               	movf	??_login_menu+2,w
  5612  08D3  00A3               	movwf	clcd_print@addr
  5613  08D4  160A  118A  22B1  120A  158A  	fcall	_clcd_print
  5614                           
  5615                           ;car_black_box_def.c: 221:     }
  5616  08D9  2918               	goto	l4673
  5617  08DA                     l4665:
  5618  08DA  3004               	movlw	4
  5619  08DB  064B               	xorwf	login_menu@menu_pos,w
  5620  08DC  1D03               	btfss	3,2
  5621  08DD  28DF               	goto	u4151
  5622  08DE  28E0               	goto	u4150
  5623  08DF                     u4151:
  5624  08DF  2918               	goto	l4673
  5625  08E0                     u4150:
  5626  08E0                     l4667:
  5627                           
  5628                           ;car_black_box_def.c: 223:     {;car_black_box_def.c: 224:         clcd_putch('*', (0xC0
      +                           + 0));
  5629  08E0  30C0               	movlw	192
  5630  08E1  00B1               	movwf	??_login_menu
  5631  08E2  0831               	movf	??_login_menu,w
  5632  08E3  00AE               	movwf	clcd_putch@addr
  5633  08E4  302A               	movlw	42
  5634  08E5  160A  158A  2782  120A  158A  	fcall	_clcd_putch
  5635  08EA                     l4669:
  5636                           
  5637                           ;car_black_box_def.c: 225:         clcd_print(menu[menu_pos-1], (0x80 + 2));
  5638  08EA  1283               	bcf	3,5	;RP0=0, select bank0
  5639  08EB  1303               	bcf	3,6	;RP1=0, select bank0
  5640  08EC  084B               	movf	login_menu@menu_pos,w
  5641  08ED  00B1               	movwf	??_login_menu
  5642  08EE  0731               	addwf	??_login_menu,w
  5643  08EF  3ED3               	addlw	(low ((_menu| 0+254)))& (0+255)
  5644  08F0  0084               	movwf	4
  5645  08F1  1383               	bcf	3,7	;select IRP bank1
  5646  08F2  0800               	movf	0,w
  5647  08F3  00A1               	movwf	clcd_print@str
  5648  08F4  0A84               	incf	4,f
  5649  08F5  0800               	movf	0,w
  5650  08F6  0384               	decf	4,f
  5651  08F7  00A2               	movwf	clcd_print@str+1
  5652  08F8  3082               	movlw	130
  5653  08F9  00B3               	movwf	??_login_menu+2
  5654  08FA  0833               	movf	??_login_menu+2,w
  5655  08FB  00A3               	movwf	clcd_print@addr
  5656  08FC  160A  118A  22B1  120A  158A  	fcall	_clcd_print
  5657  0901                     l4671:
  5658                           
  5659                           ;car_black_box_def.c: 226:         clcd_print(menu[menu_pos], (0xC0 + 2));
  5660  0901  1283               	bcf	3,5	;RP0=0, select bank0
  5661  0902  1303               	bcf	3,6	;RP1=0, select bank0
  5662  0903  084B               	movf	login_menu@menu_pos,w
  5663  0904  00B1               	movwf	??_login_menu
  5664  0905  0731               	addwf	??_login_menu,w
  5665  0906  3ED5               	addlw	(low (_menu| 0))& (0+255)
  5666  0907  0084               	movwf	4
  5667  0908  1383               	bcf	3,7	;select IRP bank1
  5668  0909  0800               	movf	0,w
  5669  090A  00A1               	movwf	clcd_print@str
  5670  090B  0A84               	incf	4,f
  5671  090C  0800               	movf	0,w
  5672  090D  0384               	decf	4,f
  5673  090E  00A2               	movwf	clcd_print@str+1
  5674  090F  30C2               	movlw	194
  5675  0910  00B3               	movwf	??_login_menu+2
  5676  0911  0833               	movf	??_login_menu+2,w
  5677  0912  00A3               	movwf	clcd_print@addr
  5678  0913  160A  118A  22B1  120A  158A  	fcall	_clcd_print
  5679  0918                     l4673:
  5680                           
  5681                           ;car_black_box_def.c: 228:     return menu_pos;
  5682  0918  1283               	bcf	3,5	;RP0=0, select bank0
  5683  0919  1303               	bcf	3,6	;RP1=0, select bank0
  5684  091A  084B               	movf	login_menu@menu_pos,w
  5685  091B                     l394:
  5686  091B  0008               	return
  5687  091C                     __end_of_login_menu:
  5688                           
  5689                           	psect	text7
  5690  0A88                     __ptext7:	
  5691 ;; *************** function _login *****************
  5692 ;; Defined at:
  5693 ;;		line 102 in file "car_black_box_def.c"
  5694 ;; Parameters:    Size  Location     Type
  5695 ;;  reset_flag      1    wreg     unsigned char 
  5696 ;;  key             1   16[BANK0 ] unsigned char 
  5697 ;; Auto vars:     Size  Location     Type
  5698 ;;  reset_flag      1   24[BANK0 ] unsigned char 
  5699 ;;  j               1   25[BANK0 ] unsigned char 
  5700 ;;  spasswd         4   20[BANK0 ] unsigned char [4]
  5701 ;; Return value:  Size  Location     Type
  5702 ;;                  1    wreg      unsigned char 
  5703 ;; Registers used:
  5704 ;;		wreg, fsr0l, fsr0h, status,2, status,0, btemp+1, pclath, cstack
  5705 ;; Tracked objects:
  5706 ;;		On entry : 0/0
  5707 ;;		On exit  : 0/0
  5708 ;;		Unchanged: 0/0
  5709 ;; Data sizes:     COMMON   BANK0   BANK1   BANK3   BANK2
  5710 ;;      Params:         0       1       0       0       0
  5711 ;;      Locals:         0       6       0       0       0
  5712 ;;      Temps:          0       3       0       0       0
  5713 ;;      Totals:         0      10       0       0       0
  5714 ;;Total ram usage:       10 bytes
  5715 ;; Hardware stack levels used: 1
  5716 ;; Hardware stack levels required when called: 5
  5717 ;; This function calls:
  5718 ;;		___awdiv
  5719 ;;		___awmod
  5720 ;;		_clcd_print
  5721 ;;		_clcd_putch
  5722 ;;		_clcd_write
  5723 ;;		_clear_screen
  5724 ;;		_read_EEPROM
  5725 ;;		_strncmp
  5726 ;; This function is called by:
  5727 ;;		_main
  5728 ;; This function uses a non-reentrant model
  5729 ;;
  5730                           
  5731                           
  5732                           ;psect for function _login
  5733  0A88                     _login:
  5734                           
  5735                           ;incstack = 0
  5736                           ; Regs used in _login: [wreg-fsr0h+status,2+status,0+btemp+1+pclath+cstack]
  5737                           ;login@reset_flag stored from wreg
  5738  0A88  1283               	bcf	3,5	;RP0=0, select bank0
  5739  0A89  1303               	bcf	3,6	;RP1=0, select bank0
  5740  0A8A  00B8               	movwf	login@reset_flag
  5741  0A8B                     l4513:
  5742                           
  5743                           ;car_black_box_def.c: 102: char login(unsigned char reset_flag, unsigned char key);car_b
      +                          lack_box_def.c: 103: {;car_black_box_def.c: 104:     static char npasswd[4];;car_black_b
      +                          ox_def.c: 105:     char spasswd[4];;car_black_box_def.c: 106:     static unsigned char a
      +                          ttempt_rem, i;;car_black_box_def.c: 108:     if(reset_flag == 0x10)
  5744  0A8B  3010               	movlw	16
  5745  0A8C  0638               	xorwf	login@reset_flag,w
  5746  0A8D  1D03               	btfss	3,2
  5747  0A8E  2A90               	goto	u3971
  5748  0A8F  2A91               	goto	u3970
  5749  0A90                     u3971:
  5750  0A90  2AA8               	goto	l4521
  5751  0A91                     u3970:
  5752  0A91                     l4515:
  5753                           
  5754                           ;car_black_box_def.c: 109:     {;car_black_box_def.c: 110:         npasswd[0] = '\0';
  5755  0A91  1683               	bsf	3,5	;RP0=1, select bank1
  5756  0A92  1303               	bcf	3,6	;RP1=0, select bank1
  5757  0A93  01C5               	clrf	login@npasswd^(0+128)
  5758                           
  5759                           ;car_black_box_def.c: 111:         npasswd[1] = '\0';
  5760  0A94  01C6               	clrf	(login@npasswd^(0+128)+1)
  5761                           
  5762                           ;car_black_box_def.c: 112:         npasswd[2] = '\0';
  5763  0A95  01C7               	clrf	(login@npasswd^(0+128)+2)
  5764                           
  5765                           ;car_black_box_def.c: 113:         npasswd[3] = '\0';
  5766  0A96  01C8               	clrf	(login@npasswd^(0+128)+3)
  5767  0A97                     l4517:
  5768                           
  5769                           ;car_black_box_def.c: 115:         attempt_rem = 3;
  5770  0A97  3003               	movlw	3
  5771  0A98  1283               	bcf	3,5	;RP0=0, select bank0
  5772  0A99  1303               	bcf	3,6	;RP1=0, select bank0
  5773  0A9A  00B1               	movwf	??_login
  5774  0A9B  0831               	movf	??_login,w
  5775  0A9C  00CD               	movwf	login@attempt_rem
  5776  0A9D                     l4519:
  5777                           
  5778                           ;car_black_box_def.c: 116:         i = 0;
  5779  0A9D  01CC               	clrf	login@i
  5780                           
  5781                           ;car_black_box_def.c: 117:         key = 0x3F;
  5782  0A9E  303F               	movlw	63
  5783  0A9F  00B1               	movwf	??_login
  5784  0AA0  0831               	movf	??_login,w
  5785  0AA1  00B0               	movwf	login@key
  5786                           
  5787                           ;car_black_box_def.c: 118:         return_time = 5;
  5788  0AA2  3005               	movlw	5
  5789  0AA3  1683               	bsf	3,5	;RP0=1, select bank1
  5790  0AA4  1303               	bcf	3,6	;RP1=0, select bank1
  5791  0AA5  00A9               	movwf	_return_time^(0+128)
  5792  0AA6  3000               	movlw	0
  5793  0AA7  00AA               	movwf	(_return_time^(0+128)+1)
  5794  0AA8                     l4521:
  5795                           
  5796                           ;car_black_box_def.c: 120:     if(return_time == 0)
  5797  0AA8  1683               	bsf	3,5	;RP0=1, select bank1
  5798  0AA9  1303               	bcf	3,6	;RP1=0, select bank1
  5799  0AAA  0829               	movf	_return_time^(0+128),w
  5800  0AAB  042A               	iorwf	(_return_time+1)^(0+128),w
  5801  0AAC  1D03               	btfss	3,2
  5802  0AAD  2AAF               	goto	u3981
  5803  0AAE  2AB0               	goto	u3980
  5804  0AAF                     u3981:
  5805  0AAF  2AB2               	goto	l4527
  5806  0AB0                     u3980:
  5807  0AB0                     l4523:
  5808                           
  5809                           ;car_black_box_def.c: 121:         return 0x22;
  5810  0AB0  3022               	movlw	34
  5811  0AB1  2C3D               	goto	l374
  5812  0AB2                     l4527:
  5813                           
  5814                           ;car_black_box_def.c: 122:     if(key == 0x37 && i < 4)
  5815  0AB2  3037               	movlw	55
  5816  0AB3  1283               	bcf	3,5	;RP0=0, select bank0
  5817  0AB4  1303               	bcf	3,6	;RP1=0, select bank0
  5818  0AB5  0630               	xorwf	login@key,w
  5819  0AB6  1D03               	btfss	3,2
  5820  0AB7  2AB9               	goto	u3991
  5821  0AB8  2ABA               	goto	u3990
  5822  0AB9                     u3991:
  5823  0AB9  2ADE               	goto	l4539
  5824  0ABA                     u3990:
  5825  0ABA                     l4529:
  5826  0ABA  3004               	movlw	4
  5827  0ABB  024C               	subwf	login@i,w
  5828  0ABC  1803               	skipnc
  5829  0ABD  2ABF               	goto	u4001
  5830  0ABE  2AC0               	goto	u4000
  5831  0ABF                     u4001:
  5832  0ABF  2ADE               	goto	l4539
  5833  0AC0                     u4000:
  5834  0AC0                     l4531:
  5835                           
  5836                           ;car_black_box_def.c: 123:     {;car_black_box_def.c: 124:         npasswd[i] = '1';
  5837  0AC0  3031               	movlw	49
  5838  0AC1  00B1               	movwf	??_login
  5839  0AC2  084C               	movf	login@i,w
  5840  0AC3  3EC5               	addlw	(low (login@npasswd| 0))& (0+255)
  5841  0AC4  0084               	movwf	4
  5842  0AC5  0831               	movf	??_login,w
  5843  0AC6  1383               	bcf	3,7	;select IRP bank1
  5844  0AC7  0080               	movwf	0
  5845  0AC8                     l4533:
  5846                           
  5847                           ;car_black_box_def.c: 125:         i++;
  5848  0AC8  3001               	movlw	1
  5849  0AC9  00B1               	movwf	??_login
  5850  0ACA  0831               	movf	??_login,w
  5851  0ACB  07CC               	addwf	login@i,f
  5852  0ACC                     l4535:
  5853                           
  5854                           ;car_black_box_def.c: 126:         clcd_putch('*', (0xC0 + 5+i));
  5855  0ACC  084C               	movf	login@i,w
  5856  0ACD  3EC5               	addlw	197
  5857  0ACE  00B1               	movwf	??_login
  5858  0ACF  0831               	movf	??_login,w
  5859  0AD0  00AE               	movwf	clcd_putch@addr
  5860  0AD1  302A               	movlw	42
  5861  0AD2  160A  158A  2782  120A  158A  	fcall	_clcd_putch
  5862  0AD7                     l4537:
  5863                           
  5864                           ;car_black_box_def.c: 127:         return_time = 5;
  5865  0AD7  3005               	movlw	5
  5866  0AD8  1683               	bsf	3,5	;RP0=1, select bank1
  5867  0AD9  1303               	bcf	3,6	;RP1=0, select bank1
  5868  0ADA  00A9               	movwf	_return_time^(0+128)
  5869  0ADB  3000               	movlw	0
  5870  0ADC  00AA               	movwf	(_return_time^(0+128)+1)
  5871                           
  5872                           ;car_black_box_def.c: 128:     }
  5873  0ADD  2B02               	goto	l4551
  5874  0ADE                     l4539:
  5875  0ADE  302F               	movlw	47
  5876  0ADF  0630               	xorwf	login@key,w
  5877  0AE0  1D03               	btfss	3,2
  5878  0AE1  2AE3               	goto	u4011
  5879  0AE2  2AE4               	goto	u4010
  5880  0AE3                     u4011:
  5881  0AE3  2B02               	goto	l4551
  5882  0AE4                     u4010:
  5883  0AE4                     l4541:
  5884  0AE4  3004               	movlw	4
  5885  0AE5  024C               	subwf	login@i,w
  5886  0AE6  1803               	skipnc
  5887  0AE7  2AE9               	goto	u4021
  5888  0AE8  2AEA               	goto	u4020
  5889  0AE9                     u4021:
  5890  0AE9  2B02               	goto	l4551
  5891  0AEA                     u4020:
  5892  0AEA                     l4543:
  5893                           
  5894                           ;car_black_box_def.c: 130:     {;car_black_box_def.c: 131:         npasswd[i] = '0';
  5895  0AEA  3030               	movlw	48
  5896  0AEB  00B1               	movwf	??_login
  5897  0AEC  084C               	movf	login@i,w
  5898  0AED  3EC5               	addlw	(low (login@npasswd| 0))& (0+255)
  5899  0AEE  0084               	movwf	4
  5900  0AEF  0831               	movf	??_login,w
  5901  0AF0  1383               	bcf	3,7	;select IRP bank1
  5902  0AF1  0080               	movwf	0
  5903  0AF2                     l4545:
  5904                           
  5905                           ;car_black_box_def.c: 132:         i++;
  5906  0AF2  3001               	movlw	1
  5907  0AF3  00B1               	movwf	??_login
  5908  0AF4  0831               	movf	??_login,w
  5909  0AF5  07CC               	addwf	login@i,f
  5910  0AF6                     l4547:
  5911                           
  5912                           ;car_black_box_def.c: 133:         clcd_putch('*', (0xC0 + 5+i));
  5913  0AF6  084C               	movf	login@i,w
  5914  0AF7  3EC5               	addlw	197
  5915  0AF8  00B1               	movwf	??_login
  5916  0AF9  0831               	movf	??_login,w
  5917  0AFA  00AE               	movwf	clcd_putch@addr
  5918  0AFB  302A               	movlw	42
  5919  0AFC  160A  158A  2782  120A  158A  	fcall	_clcd_putch
  5920  0B01  2AD7               	goto	l4537
  5921  0B02                     l4551:
  5922                           
  5923                           ;car_black_box_def.c: 136:     if(i == 4)
  5924  0B02  3004               	movlw	4
  5925  0B03  1283               	bcf	3,5	;RP0=0, select bank0
  5926  0B04  064C               	xorwf	login@i,w
  5927  0B05  1D03               	btfss	3,2
  5928  0B06  2B08               	goto	u4031
  5929  0B07  2B09               	goto	u4030
  5930  0B08                     u4031:
  5931  0B08  2C3C               	goto	l4617
  5932  0B09                     u4030:
  5933  0B09                     l4553:
  5934                           
  5935                           ;car_black_box_def.c: 137:     {;car_black_box_def.c: 138:         for(unsigned char j =
      +                           0; j < 4; j++)
  5936  0B09  01B9               	clrf	login@j
  5937  0B0A                     l4559:
  5938                           
  5939                           ;car_black_box_def.c: 139:         {;car_black_box_def.c: 140:             spasswd[j] = 
      +                          read_EEPROM(j);
  5940  0B0A  0839               	movf	login@j,w
  5941  0B0B  160A  118A  234D  120A  158A  	fcall	_read_EEPROM
  5942  0B10  1283               	bcf	3,5	;RP0=0, select bank0
  5943  0B11  1303               	bcf	3,6	;RP1=0, select bank0
  5944  0B12  00B1               	movwf	??_login
  5945  0B13  0839               	movf	login@j,w
  5946  0B14  3E34               	addlw	(low (login@spasswd| 0))& (0+255)
  5947  0B15  0084               	movwf	4
  5948  0B16  0831               	movf	??_login,w
  5949  0B17  1383               	bcf	3,7	;select IRP bank0
  5950  0B18  0080               	movwf	0
  5951  0B19                     l4561:
  5952                           
  5953                           ;car_black_box_def.c: 141:         }
  5954  0B19  3001               	movlw	1
  5955  0B1A  00B1               	movwf	??_login
  5956  0B1B  0831               	movf	??_login,w
  5957  0B1C  07B9               	addwf	login@j,f
  5958  0B1D                     l4563:
  5959  0B1D  3004               	movlw	4
  5960  0B1E  0239               	subwf	login@j,w
  5961  0B1F  1C03               	skipc
  5962  0B20  2B22               	goto	u4041
  5963  0B21  2B23               	goto	u4040
  5964  0B22                     u4041:
  5965  0B22  2B0A               	goto	l4559
  5966  0B23                     u4040:
  5967  0B23                     l4565:
  5968                           
  5969                           ;car_black_box_def.c: 142:         if(strncmp(npasswd, spasswd, 4) == 0)
  5970  0B23  3034               	movlw	(low (login@spasswd| 0))& (0+255)
  5971  0B24  00B1               	movwf	??_login
  5972  0B25  0831               	movf	??_login,w
  5973  0B26  00F4               	movwf	strncmp@s2
  5974  0B27  3004               	movlw	4
  5975  0B28  00F5               	movwf	strncmp@len
  5976  0B29  3000               	movlw	0
  5977  0B2A  00F6               	movwf	strncmp@len+1
  5978  0B2B  30C5               	movlw	(low (login@npasswd| 0))& (0+255)
  5979  0B2C  160A  118A  242C  120A  158A  	fcall	_strncmp
  5980  0B31  0874               	movf	?_strncmp,w
  5981  0B32  0475               	iorwf	?_strncmp+1,w
  5982  0B33  1D03               	btfss	3,2
  5983  0B34  2B36               	goto	u4051
  5984  0B35  2B37               	goto	u4050
  5985  0B36                     u4051:
  5986  0B36  2B39               	goto	l4573
  5987  0B37                     u4050:
  5988  0B37                     l4567:
  5989                           
  5990                           ;car_black_box_def.c: 143:         {;car_black_box_def.c: 145:             return 0x21;
  5991  0B37  3021               	movlw	33
  5992  0B38  2C3D               	goto	l374
  5993  0B39                     l4573:
  5994                           
  5995                           ;car_black_box_def.c: 148:         {;car_black_box_def.c: 150:             attempt_rem--
      +                          ;
  5996  0B39  3001               	movlw	1
  5997  0B3A  1283               	bcf	3,5	;RP0=0, select bank0
  5998  0B3B  1303               	bcf	3,6	;RP1=0, select bank0
  5999  0B3C  02CD               	subwf	login@attempt_rem,f
  6000                           
  6001                           ;car_black_box_def.c: 151:             if(attempt_rem == 0)
  6002  0B3D  084D               	movf	login@attempt_rem,w
  6003  0B3E  1D03               	btfss	3,2
  6004  0B3F  2B41               	goto	u4061
  6005  0B40  2B42               	goto	u4060
  6006  0B41                     u4061:
  6007  0B41  2BC7               	goto	l4595
  6008  0B42                     u4060:
  6009  0B42                     l4575:
  6010                           
  6011                           ;car_black_box_def.c: 152:             {;car_black_box_def.c: 153:                 clear
      +                          _screen();
  6012  0B42  160A  158A  2749  120A  158A  	fcall	_clear_screen
  6013                           
  6014                           ;car_black_box_def.c: 154:                 clcd_write(0x0C, 0);
  6015  0B47  01F4               	clrf	clcd_write@mode
  6016  0B48  300C               	movlw	12
  6017  0B49  160A  118A  2382  120A  158A  	fcall	_clcd_write
  6018  0B4E                     l4577:
  6019                           
  6020                           ;car_black_box_def.c: 155:                 _delay((unsigned long)((100)*(20000000/400000
      +                          0.0)));
  6021  0B4E  30A5               	movlw	165
  6022  0B4F  1283               	bcf	3,5	;RP0=0, select bank0
  6023  0B50  1303               	bcf	3,6	;RP1=0, select bank0
  6024  0B51  00B1               	movwf	??_login
  6025  0B52                     u5377:
  6026  0B52  0BB1               	decfsz	??_login,f
  6027  0B53  2B52               	goto	u5377
  6028  0B54  2B55               	nop2
  6029  0B55                     l4579:
  6030                           
  6031                           ;car_black_box_def.c: 156:                 clcd_print("You are blocked", (0x80 + 0));
  6032  0B55  308A               	movlw	low (STR_17| (0+32768))
  6033  0B56  1283               	bcf	3,5	;RP0=0, select bank0
  6034  0B57  1303               	bcf	3,6	;RP1=0, select bank0
  6035  0B58  00A1               	movwf	clcd_print@str
  6036  0B59  3090               	movlw	high (STR_17| (0+32768))
  6037  0B5A  00A2               	movwf	clcd_print@str+1
  6038  0B5B  3080               	movlw	128
  6039  0B5C  00B1               	movwf	??_login
  6040  0B5D  0831               	movf	??_login,w
  6041  0B5E  00A3               	movwf	clcd_print@addr
  6042  0B5F  160A  118A  22B1  120A  158A  	fcall	_clcd_print
  6043  0B64                     l4581:
  6044                           
  6045                           ;car_black_box_def.c: 157:                 clcd_print("wait for 15 min", (0xC0 + 0));
  6046  0B64  30BA               	movlw	low (STR_18| (0+32768))
  6047  0B65  1283               	bcf	3,5	;RP0=0, select bank0
  6048  0B66  1303               	bcf	3,6	;RP1=0, select bank0
  6049  0B67  00A1               	movwf	clcd_print@str
  6050  0B68  3090               	movlw	high (STR_18| (0+32768))
  6051  0B69  00A2               	movwf	clcd_print@str+1
  6052  0B6A  30C0               	movlw	192
  6053  0B6B  00B1               	movwf	??_login
  6054  0B6C  0831               	movf	??_login,w
  6055  0B6D  00A3               	movwf	clcd_print@addr
  6056  0B6E  160A  118A  22B1  120A  158A  	fcall	_clcd_print
  6057  0B73                     l4583:
  6058                           
  6059                           ;car_black_box_def.c: 159:                 sec = 60;
  6060  0B73  303C               	movlw	60
  6061  0B74  1283               	bcf	3,5	;RP0=0, select bank0
  6062  0B75  1303               	bcf	3,6	;RP1=0, select bank0
  6063  0B76  00B1               	movwf	??_login
  6064  0B77  0831               	movf	??_login,w
  6065  0B78  00CF               	movwf	_sec
  6066  0B79                     l4585:
  6067                           
  6068                           ;car_black_box_def.c: 161:                 min = 15;
  6069  0B79  300F               	movlw	15
  6070  0B7A  00B1               	movwf	??_login
  6071  0B7B  0831               	movf	??_login,w
  6072  0B7C  00CE               	movwf	_min
  6073                           
  6074                           ;car_black_box_def.c: 162:                 while(min)
  6075  0B7D  2BBA               	goto	l4589
  6076  0B7E                     l4587:
  6077                           
  6078                           ;car_black_box_def.c: 163:                 {;car_black_box_def.c: 164:                  
      +                             clcd_putch(min/10 + '0', (0xC0 + 9));
  6079  0B7E  30C9               	movlw	201
  6080  0B7F  00B1               	movwf	??_login
  6081  0B80  0831               	movf	??_login,w
  6082  0B81  00AE               	movwf	clcd_putch@addr
  6083  0B82  300A               	movlw	10
  6084  0B83  00A0               	movwf	___awdiv@divisor
  6085  0B84  3000               	movlw	0
  6086  0B85  00A1               	movwf	___awdiv@divisor+1
  6087  0B86  084E               	movf	_min,w
  6088  0B87  00B2               	movwf	??_login+1
  6089  0B88  01B3               	clrf	??_login+2
  6090  0B89  0832               	movf	??_login+1,w
  6091  0B8A  00A2               	movwf	___awdiv@dividend
  6092  0B8B  0833               	movf	??_login+2,w
  6093  0B8C  00A3               	movwf	___awdiv@dividend+1
  6094  0B8D  160A  118A  26D0  120A  158A  	fcall	___awdiv
  6095  0B92  1283               	bcf	3,5	;RP0=0, select bank0
  6096  0B93  1303               	bcf	3,6	;RP1=0, select bank0
  6097  0B94  0820               	movf	?___awdiv,w
  6098  0B95  3E30               	addlw	48
  6099  0B96  160A  158A  2782  120A  158A  	fcall	_clcd_putch
  6100                           
  6101                           ;car_black_box_def.c: 165:                     clcd_putch(min%10 + '0', (0xC0 + 10));
  6102  0B9B  30CA               	movlw	202
  6103  0B9C  1283               	bcf	3,5	;RP0=0, select bank0
  6104  0B9D  1303               	bcf	3,6	;RP1=0, select bank0
  6105  0B9E  00B1               	movwf	??_login
  6106  0B9F  0831               	movf	??_login,w
  6107  0BA0  00AE               	movwf	clcd_putch@addr
  6108  0BA1  300A               	movlw	10
  6109  0BA2  00A8               	movwf	___awmod@divisor
  6110  0BA3  3000               	movlw	0
  6111  0BA4  00A9               	movwf	___awmod@divisor+1
  6112  0BA5  084E               	movf	_min,w
  6113  0BA6  00B2               	movwf	??_login+1
  6114  0BA7  01B3               	clrf	??_login+2
  6115  0BA8  0832               	movf	??_login+1,w
  6116  0BA9  00AA               	movwf	___awmod@dividend
  6117  0BAA  0833               	movf	??_login+2,w
  6118  0BAB  00AB               	movwf	___awmod@dividend+1
  6119  0BAC  160A  118A  254C  120A  158A  	fcall	___awmod
  6120  0BB1  1283               	bcf	3,5	;RP0=0, select bank0
  6121  0BB2  1303               	bcf	3,6	;RP1=0, select bank0
  6122  0BB3  0828               	movf	?___awmod,w
  6123  0BB4  3E30               	addlw	48
  6124  0BB5  160A  158A  2782  120A  158A  	fcall	_clcd_putch
  6125  0BBA                     l4589:
  6126                           
  6127                           ;car_black_box_def.c: 162:                 while(min)
  6128  0BBA  1283               	bcf	3,5	;RP0=0, select bank0
  6129  0BBB  1303               	bcf	3,6	;RP1=0, select bank0
  6130  0BBC  084E               	movf	_min,w
  6131  0BBD  1D03               	btfss	3,2
  6132  0BBE  2BC0               	goto	u4071
  6133  0BBF  2BC1               	goto	u4070
  6134  0BC0                     u4071:
  6135  0BC0  2B7E               	goto	l4587
  6136  0BC1                     u4070:
  6137  0BC1                     l4591:
  6138                           
  6139                           ;car_black_box_def.c: 167:                 sec = 0;
  6140  0BC1  01CF               	clrf	_sec
  6141  0BC2                     l4593:
  6142                           
  6143                           ;car_black_box_def.c: 168:                 attempt_rem = 3;
  6144  0BC2  3003               	movlw	3
  6145  0BC3  00B1               	movwf	??_login
  6146  0BC4  0831               	movf	??_login,w
  6147  0BC5  00CD               	movwf	login@attempt_rem
  6148                           
  6149                           ;car_black_box_def.c: 169:             }
  6150  0BC6  2C05               	goto	l4603
  6151  0BC7                     l4595:
  6152                           
  6153                           ;car_black_box_def.c: 171:             {;car_black_box_def.c: 172:                 clear
      +                          _screen();
  6154  0BC7  160A  158A  2749  120A  158A  	fcall	_clear_screen
  6155  0BCC                     l4597:
  6156                           
  6157                           ;car_black_box_def.c: 173:                 clcd_print("Wrong Password", (0x80 + 0));
  6158  0BCC  30CA               	movlw	low (STR_19| (0+32768))
  6159  0BCD  1283               	bcf	3,5	;RP0=0, select bank0
  6160  0BCE  1303               	bcf	3,6	;RP1=0, select bank0
  6161  0BCF  00A1               	movwf	clcd_print@str
  6162  0BD0  3090               	movlw	high (STR_19| (0+32768))
  6163  0BD1  00A2               	movwf	clcd_print@str+1
  6164  0BD2  3080               	movlw	128
  6165  0BD3  00B1               	movwf	??_login
  6166  0BD4  0831               	movf	??_login,w
  6167  0BD5  00A3               	movwf	clcd_print@addr
  6168  0BD6  160A  118A  22B1  120A  158A  	fcall	_clcd_print
  6169  0BDB                     l4599:
  6170                           
  6171                           ;car_black_box_def.c: 174:                 clcd_putch(attempt_rem + '0', (0xC0 + 0));
  6172  0BDB  30C0               	movlw	192
  6173  0BDC  1283               	bcf	3,5	;RP0=0, select bank0
  6174  0BDD  1303               	bcf	3,6	;RP1=0, select bank0
  6175  0BDE  00B1               	movwf	??_login
  6176  0BDF  0831               	movf	??_login,w
  6177  0BE0  00AE               	movwf	clcd_putch@addr
  6178  0BE1  084D               	movf	login@attempt_rem,w
  6179  0BE2  3E30               	addlw	48
  6180  0BE3  160A  158A  2782  120A  158A  	fcall	_clcd_putch
  6181                           
  6182                           ;car_black_box_def.c: 175:                 clcd_print("attempt remain", (0xC0 + 2));
  6183  0BE8  30D9               	movlw	low (STR_20| (0+32768))
  6184  0BE9  1283               	bcf	3,5	;RP0=0, select bank0
  6185  0BEA  1303               	bcf	3,6	;RP1=0, select bank0
  6186  0BEB  00A1               	movwf	clcd_print@str
  6187  0BEC  3090               	movlw	high (STR_20| (0+32768))
  6188  0BED  00A2               	movwf	clcd_print@str+1
  6189  0BEE  30C2               	movlw	194
  6190  0BEF  00B1               	movwf	??_login
  6191  0BF0  0831               	movf	??_login,w
  6192  0BF1  00A3               	movwf	clcd_print@addr
  6193  0BF2  160A  118A  22B1  120A  158A  	fcall	_clcd_print
  6194  0BF7                     l4601:
  6195                           
  6196                           ;car_black_box_def.c: 176:                 _delay((unsigned long)((3000)*(20000000/4000.
      +                          0)));
  6197  0BF7  304D               	movlw	77
  6198  0BF8  1283               	bcf	3,5	;RP0=0, select bank0
  6199  0BF9  1303               	bcf	3,6	;RP1=0, select bank0
  6200  0BFA  00B3               	movwf	??_login+2
  6201  0BFB  3019               	movlw	25
  6202  0BFC  00B2               	movwf	??_login+1
  6203  0BFD  304F               	movlw	79
  6204  0BFE  00B1               	movwf	??_login
  6205  0BFF                     u5387:
  6206  0BFF  0BB1               	decfsz	??_login,f
  6207  0C00  2BFF               	goto	u5387
  6208  0C01  0BB2               	decfsz	??_login+1,f
  6209  0C02  2BFF               	goto	u5387
  6210  0C03  0BB3               	decfsz	??_login+2,f
  6211  0C04  2BFF               	goto	u5387
  6212  0C05                     l4603:
  6213                           
  6214                           ;car_black_box_def.c: 179:             clear_screen();
  6215  0C05  160A  158A  2749  120A  158A  	fcall	_clear_screen
  6216  0C0A                     l4605:
  6217                           
  6218                           ;car_black_box_def.c: 180:             clcd_print(" ENTER PASSWORD ", (0x80 + 0));
  6219  0C0A  3069               	movlw	low (STR_9| (0+32768))
  6220  0C0B  1283               	bcf	3,5	;RP0=0, select bank0
  6221  0C0C  1303               	bcf	3,6	;RP1=0, select bank0
  6222  0C0D  00A1               	movwf	clcd_print@str
  6223  0C0E  3090               	movlw	high (STR_9| (0+32768))
  6224  0C0F  00A2               	movwf	clcd_print@str+1
  6225  0C10  3080               	movlw	128
  6226  0C11  00B1               	movwf	??_login
  6227  0C12  0831               	movf	??_login,w
  6228  0C13  00A3               	movwf	clcd_print@addr
  6229  0C14  160A  118A  22B1  120A  158A  	fcall	_clcd_print
  6230  0C19                     l4607:
  6231                           
  6232                           ;car_black_box_def.c: 181:             clcd_putch(' ', (0xC0 + 5));
  6233  0C19  30C5               	movlw	197
  6234  0C1A  1283               	bcf	3,5	;RP0=0, select bank0
  6235  0C1B  1303               	bcf	3,6	;RP1=0, select bank0
  6236  0C1C  00B1               	movwf	??_login
  6237  0C1D  0831               	movf	??_login,w
  6238  0C1E  00AE               	movwf	clcd_putch@addr
  6239  0C1F  3020               	movlw	32
  6240  0C20  160A  158A  2782  120A  158A  	fcall	_clcd_putch
  6241  0C25                     l4609:
  6242                           
  6243                           ;car_black_box_def.c: 182:             clcd_write(0x0F, 0);
  6244  0C25  01F4               	clrf	clcd_write@mode
  6245  0C26  300F               	movlw	15
  6246  0C27  160A  118A  2382  120A  158A  	fcall	_clcd_write
  6247  0C2C                     l4611:
  6248                           
  6249                           ;car_black_box_def.c: 183:             _delay((unsigned long)((100)*(20000000/4000000.0)
      +                          ));
  6250  0C2C  30A5               	movlw	165
  6251  0C2D  1283               	bcf	3,5	;RP0=0, select bank0
  6252  0C2E  1303               	bcf	3,6	;RP1=0, select bank0
  6253  0C2F  00B1               	movwf	??_login
  6254  0C30                     u5397:
  6255  0C30  0BB1               	decfsz	??_login,f
  6256  0C31  2C30               	goto	u5397
  6257  0C32  2C33               	nop2
  6258  0C33                     l4613:
  6259                           
  6260                           ;car_black_box_def.c: 184:             i = 0;
  6261  0C33  1283               	bcf	3,5	;RP0=0, select bank0
  6262  0C34  1303               	bcf	3,6	;RP1=0, select bank0
  6263  0C35  01CC               	clrf	login@i
  6264  0C36                     l4615:
  6265                           
  6266                           ;car_black_box_def.c: 185:             return_time = 5;
  6267  0C36  3005               	movlw	5
  6268  0C37  1683               	bsf	3,5	;RP0=1, select bank1
  6269  0C38  1303               	bcf	3,6	;RP1=0, select bank1
  6270  0C39  00A9               	movwf	_return_time^(0+128)
  6271  0C3A  3000               	movlw	0
  6272  0C3B  00AA               	movwf	(_return_time^(0+128)+1)
  6273  0C3C                     l4617:
  6274                           
  6275                           ;car_black_box_def.c: 188:     return 0x30;
  6276  0C3C  3030               	movlw	48
  6277  0C3D                     l374:
  6278  0C3D  0008               	return
  6279  0C3E                     __end_of_login:
  6280                           
  6281                           	psect	text8
  6282  15A7                     __ptext8:	
  6283 ;; *************** function _log_event *****************
  6284 ;; Defined at:
  6285 ;;		line 90 in file "car_black_box_def.c"
  6286 ;; Parameters:    Size  Location     Type
  6287 ;;  event           1    wreg     PTR unsigned char 
  6288 ;;		 -> main@event(3), 
  6289 ;;  speed           1   14[BANK0 ] unsigned char 
  6290 ;; Auto vars:     Size  Location     Type
  6291 ;;  event           1   18[BANK0 ] PTR unsigned char 
  6292 ;;		 -> main@event(3), 
  6293 ;; Return value:  Size  Location     Type
  6294 ;;                  1    wreg      void 
  6295 ;; Registers used:
  6296 ;;		wreg, fsr0l, fsr0h, status,2, status,0, btemp+1, pclath, cstack
  6297 ;; Tracked objects:
  6298 ;;		On entry : 0/0
  6299 ;;		On exit  : 0/0
  6300 ;;		Unchanged: 0/0
  6301 ;; Data sizes:     COMMON   BANK0   BANK1   BANK3   BANK2
  6302 ;;      Params:         0       1       0       0       0
  6303 ;;      Locals:         0       1       0       0       0
  6304 ;;      Temps:          0       3       0       0       0
  6305 ;;      Totals:         0       5       0       0       0
  6306 ;;Total ram usage:        5 bytes
  6307 ;; Hardware stack levels used: 1
  6308 ;; Hardware stack levels required when called: 6
  6309 ;; This function calls:
  6310 ;;		___awdiv
  6311 ;;		___awmod
  6312 ;;		_log_car_event
  6313 ;;		_strncpy
  6314 ;; This function is called by:
  6315 ;;		_main
  6316 ;; This function uses a non-reentrant model
  6317 ;;
  6318                           
  6319                           
  6320                           ;psect for function _log_event
  6321  15A7                     _log_event:
  6322                           
  6323                           ;incstack = 0
  6324                           ; Regs used in _log_event: [wreg-fsr0h+status,2+status,0+btemp+1+pclath+cstack]
  6325                           ;log_event@event stored from wreg
  6326  15A7  1283               	bcf	3,5	;RP0=0, select bank0
  6327  15A8  1303               	bcf	3,6	;RP1=0, select bank0
  6328  15A9  00B2               	movwf	log_event@event
  6329  15AA                     l5543:
  6330                           
  6331                           ;car_black_box_def.c: 90: void log_event(char event[], unsigned char speed);car_black_bo
      +                          x_def.c: 91: {;car_black_box_def.c: 92:     strncpy(log, time, 6);
  6332  15AA  30B6               	movlw	(low (_time| 0))& (0+255)
  6333  15AB  00A0               	movwf	strncpy@from
  6334  15AC  3000               	movlw	0
  6335  15AD  00A1               	movwf	strncpy@from+1
  6336  15AE  3006               	movlw	6
  6337  15AF  00A2               	movwf	strncpy@size
  6338  15B0  3000               	movlw	0
  6339  15B1  00A3               	movwf	strncpy@size+1
  6340  15B2  30AB               	movlw	(low (_log| 0))& (0+255)
  6341  15B3  120A  158A  2002  160A  118A  	fcall	_strncpy
  6342                           
  6343                           ;car_black_box_def.c: 93:     strncpy(&log[6], event, 2);
  6344  15B8  1283               	bcf	3,5	;RP0=0, select bank0
  6345  15B9  1303               	bcf	3,6	;RP1=0, select bank0
  6346  15BA  0832               	movf	log_event@event,w
  6347  15BB  00A0               	movwf	strncpy@from
  6348  15BC  3001               	movlw	1
  6349  15BD  00A1               	movwf	strncpy@from+1
  6350  15BE  3002               	movlw	2
  6351  15BF  00A2               	movwf	strncpy@size
  6352  15C0  3000               	movlw	0
  6353  15C1  00A3               	movwf	strncpy@size+1
  6354  15C2  30B1               	movlw	(low ((_log| 0+6)))& (0+255)
  6355  15C3  120A  158A  2002  160A  118A  	fcall	_strncpy
  6356  15C8                     l5545:
  6357                           
  6358                           ;car_black_box_def.c: 94:     log[8] = speed/10 + '0';
  6359  15C8  300A               	movlw	10
  6360  15C9  1283               	bcf	3,5	;RP0=0, select bank0
  6361  15CA  1303               	bcf	3,6	;RP1=0, select bank0
  6362  15CB  00A0               	movwf	___awdiv@divisor
  6363  15CC  3000               	movlw	0
  6364  15CD  00A1               	movwf	___awdiv@divisor+1
  6365  15CE  082E               	movf	log_event@speed,w
  6366  15CF  00AF               	movwf	??_log_event
  6367  15D0  01B0               	clrf	??_log_event+1
  6368  15D1  082F               	movf	??_log_event,w
  6369  15D2  00A2               	movwf	___awdiv@dividend
  6370  15D3  0830               	movf	??_log_event+1,w
  6371  15D4  00A3               	movwf	___awdiv@dividend+1
  6372  15D5  160A  118A  26D0  160A  118A  	fcall	___awdiv
  6373  15DA  1283               	bcf	3,5	;RP0=0, select bank0
  6374  15DB  1303               	bcf	3,6	;RP1=0, select bank0
  6375  15DC  0820               	movf	?___awdiv,w
  6376  15DD  3E30               	addlw	48
  6377  15DE  00B1               	movwf	??_log_event+2
  6378  15DF  0831               	movf	??_log_event+2,w
  6379  15E0  1683               	bsf	3,5	;RP0=1, select bank1
  6380  15E1  1303               	bcf	3,6	;RP1=0, select bank1
  6381  15E2  00B3               	movwf	(_log^(0+128)+8)
  6382  15E3                     l5547:
  6383                           
  6384                           ;car_black_box_def.c: 95:     log[9] = speed%10 + '0';
  6385  15E3  300A               	movlw	10
  6386  15E4  1283               	bcf	3,5	;RP0=0, select bank0
  6387  15E5  1303               	bcf	3,6	;RP1=0, select bank0
  6388  15E6  00A8               	movwf	___awmod@divisor
  6389  15E7  3000               	movlw	0
  6390  15E8  00A9               	movwf	___awmod@divisor+1
  6391  15E9  082E               	movf	log_event@speed,w
  6392  15EA  00AF               	movwf	??_log_event
  6393  15EB  01B0               	clrf	??_log_event+1
  6394  15EC  082F               	movf	??_log_event,w
  6395  15ED  00AA               	movwf	___awmod@dividend
  6396  15EE  0830               	movf	??_log_event+1,w
  6397  15EF  00AB               	movwf	___awmod@dividend+1
  6398  15F0  160A  118A  254C  160A  118A  	fcall	___awmod
  6399  15F5  1283               	bcf	3,5	;RP0=0, select bank0
  6400  15F6  1303               	bcf	3,6	;RP1=0, select bank0
  6401  15F7  0828               	movf	?___awmod,w
  6402  15F8  3E30               	addlw	48
  6403  15F9  00B1               	movwf	??_log_event+2
  6404  15FA  0831               	movf	??_log_event+2,w
  6405  15FB  1683               	bsf	3,5	;RP0=1, select bank1
  6406  15FC  1303               	bcf	3,6	;RP1=0, select bank1
  6407  15FD  00B4               	movwf	(_log^(0+128)+9)
  6408  15FE                     l5549:
  6409                           
  6410                           ;car_black_box_def.c: 96:     log[10] = '\0';
  6411  15FE  01B5               	clrf	(_log^(0+128)+10)
  6412  15FF                     l5551:
  6413                           
  6414                           ;car_black_box_def.c: 98:     log_car_event();
  6415  15FF  160A  118A  23BA  160A  118A  	fcall	_log_car_event
  6416  1604                     l363:
  6417  1604  0008               	return
  6418  1605                     __end_of_log_event:
  6419                           
  6420                           	psect	text9
  6421  0802                     __ptext9:	
  6422 ;; *************** function _strncpy *****************
  6423 ;; Defined at:
  6424 ;;		line 8 in file "C:\Program Files\Microchip\xc8\v2.32\pic\sources\c90\common\strncpy.c"
  6425 ;; Parameters:    Size  Location     Type
  6426 ;;  to              1    wreg     PTR unsigned char 
  6427 ;;		 -> log(11), 
  6428 ;;  from            2    0[BANK0 ] PTR const unsigned char 
  6429 ;;		 -> time(7), main@event(3), 
  6430 ;;  size            2    2[BANK0 ] unsigned int 
  6431 ;; Auto vars:     Size  Location     Type
  6432 ;;  to              1    4[BANK0 ] PTR unsigned char 
  6433 ;;		 -> log(11), 
  6434 ;;  cp              1    5[BANK0 ] PTR unsigned char 
  6435 ;;		 -> log(11), 
  6436 ;; Return value:  Size  Location     Type
  6437 ;;                  1    wreg      PTR unsigned char 
  6438 ;; Registers used:
  6439 ;;		wreg, fsr0l, fsr0h, status,2, status,0
  6440 ;; Tracked objects:
  6441 ;;		On entry : 0/0
  6442 ;;		On exit  : 0/0
  6443 ;;		Unchanged: 0/0
  6444 ;; Data sizes:     COMMON   BANK0   BANK1   BANK3   BANK2
  6445 ;;      Params:         0       4       0       0       0
  6446 ;;      Locals:         0       2       0       0       0
  6447 ;;      Temps:          3       0       0       0       0
  6448 ;;      Totals:         3       6       0       0       0
  6449 ;;Total ram usage:        9 bytes
  6450 ;; Hardware stack levels used: 1
  6451 ;; Hardware stack levels required when called: 1
  6452 ;; This function calls:
  6453 ;;		Nothing
  6454 ;; This function is called by:
  6455 ;;		_log_event
  6456 ;; This function uses a non-reentrant model
  6457 ;;
  6458                           
  6459                           
  6460                           ;psect for function _strncpy
  6461  0802                     _strncpy:
  6462                           
  6463                           ;incstack = 0
  6464                           ; Regs used in _strncpy: [wreg-fsr0h+status,2+status,0]
  6465                           ;strncpy@to stored from wreg
  6466  0802  1283               	bcf	3,5	;RP0=0, select bank0
  6467  0803  1303               	bcf	3,6	;RP1=0, select bank0
  6468  0804  00A4               	movwf	strncpy@to
  6469  0805                     l5527:
  6470  0805  0824               	movf	strncpy@to,w
  6471  0806  00F4               	movwf	??_strncpy
  6472  0807  0874               	movf	??_strncpy,w
  6473  0808  00A5               	movwf	strncpy@cp
  6474  0809  282B               	goto	l5535
  6475  080A                     l5529:
  6476  080A  3001               	movlw	1
  6477  080B  02A2               	subwf	strncpy@size,f
  6478  080C  3000               	movlw	0
  6479  080D  1C03               	skipc
  6480  080E  03A3               	decf	strncpy@size+1,f
  6481  080F  02A3               	subwf	strncpy@size+1,f
  6482  0810                     l5531:
  6483  0810  0821               	movf	strncpy@from+1,w
  6484  0811  00F5               	movwf	??_strncpy+1
  6485  0812  0820               	movf	strncpy@from,w
  6486  0813  00F4               	movwf	??_strncpy
  6487  0814  0AA0               	incf	strncpy@from,f
  6488  0815  1903               	skipnz
  6489  0816  0AA1               	incf	strncpy@from+1,f
  6490  0817  0874               	movf	??_strncpy,w
  6491  0818  0084               	movwf	4
  6492  0819  1783               	bsf	3,7
  6493  081A  1C75               	btfss	??_strncpy+1,0
  6494  081B  1383               	bcf	3,7
  6495  081C  0800               	movf	0,w
  6496  081D  00F6               	movwf	??_strncpy+2
  6497  081E  0825               	movf	strncpy@cp,w
  6498  081F  0084               	movwf	4
  6499  0820  3001               	movlw	1
  6500  0821  07A5               	addwf	strncpy@cp,f
  6501  0822  0876               	movf	??_strncpy+2,w
  6502  0823  1383               	bcf	3,7	;select IRP bank0
  6503  0824  0080               	movwf	0
  6504  0825  0800               	movf	0,w
  6505  0826  1D03               	btfss	3,2
  6506  0827  2829               	goto	u5021
  6507  0828  282A               	goto	u5020
  6508  0829                     u5021:
  6509  0829  282B               	goto	l5535
  6510  082A                     u5020:
  6511  082A  283A               	goto	l5541
  6512  082B                     l5535:
  6513  082B  0822               	movf	strncpy@size,w
  6514  082C  0423               	iorwf	strncpy@size+1,w
  6515  082D  1D03               	btfss	3,2
  6516  082E  2830               	goto	u5031
  6517  082F  2831               	goto	u5030
  6518  0830                     u5031:
  6519  0830  280A               	goto	l5529
  6520  0831                     u5030:
  6521  0831  283A               	goto	l5541
  6522  0832                     l5537:
  6523  0832  0825               	movf	strncpy@cp,w
  6524  0833  0084               	movwf	4
  6525  0834  1383               	bcf	3,7	;select IRP bank0
  6526  0835  0180               	clrf	0
  6527  0836                     l5539:
  6528  0836  3001               	movlw	1
  6529  0837  00F4               	movwf	??_strncpy
  6530  0838  0874               	movf	??_strncpy,w
  6531  0839  07A5               	addwf	strncpy@cp,f
  6532  083A                     l5541:
  6533  083A  3001               	movlw	1
  6534  083B  02A2               	subwf	strncpy@size,f
  6535  083C  3000               	movlw	0
  6536  083D  1C03               	skipc
  6537  083E  03A3               	decf	strncpy@size+1,f
  6538  083F  02A3               	subwf	strncpy@size+1,f
  6539  0840  0A22               	incf	strncpy@size,w
  6540  0841  1D03               	skipz
  6541  0842  2847               	goto	u5041
  6542  0843  0A23               	incf	strncpy@size+1,w
  6543  0844  1D03               	btfss	3,2
  6544  0845  2847               	goto	u5041
  6545  0846  2848               	goto	u5040
  6546  0847                     u5041:
  6547  0847  2832               	goto	l5537
  6548  0848                     u5040:
  6549  0848                     l1129:
  6550  0848  0008               	return
  6551  0849                     __end_of_strncpy:
  6552                           
  6553                           	psect	text10
  6554  13BA                     __ptext10:	
  6555 ;; *************** function _log_car_event *****************
  6556 ;; Defined at:
  6557 ;;		line 75 in file "car_black_box_def.c"
  6558 ;; Parameters:    Size  Location     Type
  6559 ;;		None
  6560 ;; Auto vars:     Size  Location     Type
  6561 ;;  addr            1    6[BANK0 ] unsigned char 
  6562 ;; Return value:  Size  Location     Type
  6563 ;;                  1    wreg      void 
  6564 ;; Registers used:
  6565 ;;		wreg, fsr0l, fsr0h, status,2, status,0, btemp+1, pclath, cstack
  6566 ;; Tracked objects:
  6567 ;;		On entry : 0/0
  6568 ;;		On exit  : 0/0
  6569 ;;		Unchanged: 0/0
  6570 ;; Data sizes:     COMMON   BANK0   BANK1   BANK3   BANK2
  6571 ;;      Params:         0       0       0       0       0
  6572 ;;      Locals:         0       1       0       0       0
  6573 ;;      Temps:          0       2       0       0       0
  6574 ;;      Totals:         0       3       0       0       0
  6575 ;;Total ram usage:        3 bytes
  6576 ;; Hardware stack levels used: 1
  6577 ;; Hardware stack levels required when called: 5
  6578 ;; This function calls:
  6579 ;;		___bmul
  6580 ;;		_str_write_EEPROM
  6581 ;; This function is called by:
  6582 ;;		_log_event
  6583 ;; This function uses a non-reentrant model
  6584 ;;
  6585                           
  6586                           
  6587                           ;psect for function _log_car_event
  6588  13BA                     _log_car_event:
  6589  13BA                     l4295:	
  6590                           ;incstack = 0
  6591                           ; Regs used in _log_car_event: [wreg-fsr0h+status,2+status,0+btemp+1+pclath+cstack]
  6592                           
  6593                           
  6594                           ;car_black_box_def.c: 77:     char addr;;car_black_box_def.c: 78:     pos++;
  6595  13BA  3001               	movlw	1
  6596  13BB  07F7               	addwf	_pos,f
  6597  13BC  1803               	skipnc
  6598  13BD  0AF8               	incf	_pos+1,f
  6599  13BE  3000               	movlw	0
  6600  13BF  07F8               	addwf	_pos+1,f
  6601  13C0                     l4297:
  6602                           
  6603                           ;car_black_box_def.c: 79:     if(pos == 10)
  6604  13C0  300A               	movlw	10
  6605  13C1  0677               	xorwf	_pos,w
  6606  13C2  0478               	iorwf	_pos+1,w
  6607  13C3  1D03               	btfss	3,2
  6608  13C4  2BC6               	goto	u3621
  6609  13C5  2BC7               	goto	u3620
  6610  13C6                     u3621:
  6611  13C6  2BC9               	goto	l4301
  6612  13C7                     u3620:
  6613  13C7                     l4299:
  6614                           
  6615                           ;car_black_box_def.c: 80:     {;car_black_box_def.c: 81:         pos = 0;
  6616  13C7  01F7               	clrf	_pos
  6617  13C8  01F8               	clrf	_pos+1
  6618  13C9                     l4301:
  6619                           
  6620                           ;car_black_box_def.c: 83:     addr = pos * 10 + 5;
  6621  13C9  300A               	movlw	10
  6622  13CA  1283               	bcf	3,5	;RP0=0, select bank0
  6623  13CB  1303               	bcf	3,6	;RP1=0, select bank0
  6624  13CC  00A4               	movwf	??_log_car_event
  6625  13CD  0824               	movf	??_log_car_event,w
  6626  13CE  00F4               	movwf	___bmul@multiplicand
  6627  13CF  0877               	movf	_pos,w
  6628  13D0  160A  158A  2797  160A  118A  	fcall	___bmul
  6629  13D5  3E05               	addlw	5
  6630  13D6  1283               	bcf	3,5	;RP0=0, select bank0
  6631  13D7  1303               	bcf	3,6	;RP1=0, select bank0
  6632  13D8  00A5               	movwf	??_log_car_event+1
  6633  13D9  0825               	movf	??_log_car_event+1,w
  6634  13DA  00A6               	movwf	log_car_event@addr
  6635  13DB                     l4303:
  6636                           
  6637                           ;car_black_box_def.c: 84:     str_write_EEPROM(addr, log);
  6638  13DB  30AB               	movlw	(low (_log| 0))& (0+255)
  6639  13DC  00A0               	movwf	str_write_EEPROM@data
  6640  13DD  3000               	movlw	0
  6641  13DE  00A1               	movwf	str_write_EEPROM@data+1
  6642  13DF  0826               	movf	log_car_event@addr,w
  6643  13E0  160A  118A  224E  160A  118A  	fcall	_str_write_EEPROM
  6644  13E5                     l4305:
  6645                           
  6646                           ;car_black_box_def.c: 85:     if(access < 10)
  6647  13E5  300A               	movlw	10
  6648  13E6  0279               	subwf	_access,w
  6649  13E7  1803               	skipnc
  6650  13E8  2BEA               	goto	u3631
  6651  13E9  2BEB               	goto	u3630
  6652  13EA                     u3631:
  6653  13EA  2BF1               	goto	l360
  6654  13EB                     u3630:
  6655  13EB                     l4307:
  6656                           
  6657                           ;car_black_box_def.c: 86:         access++;
  6658  13EB  3001               	movlw	1
  6659  13EC  1283               	bcf	3,5	;RP0=0, select bank0
  6660  13ED  1303               	bcf	3,6	;RP1=0, select bank0
  6661  13EE  00A4               	movwf	??_log_car_event
  6662  13EF  0824               	movf	??_log_car_event,w
  6663  13F0  07F9               	addwf	_access,f
  6664  13F1                     l360:
  6665  13F1  0008               	return
  6666  13F2                     __end_of_log_car_event:
  6667                           
  6668                           	psect	text11
  6669  124E                     __ptext11:	
  6670 ;; *************** function _str_write_EEPROM *****************
  6671 ;; Defined at:
  6672 ;;		line 60 in file "EEPROM.c"
  6673 ;; Parameters:    Size  Location     Type
  6674 ;;  addr            1    wreg     unsigned char 
  6675 ;;  data            2    0[BANK0 ] PTR unsigned char 
  6676 ;;		 -> log(11), STR_7(5), 
  6677 ;; Auto vars:     Size  Location     Type
  6678 ;;  addr            1    3[BANK0 ] unsigned char 
  6679 ;; Return value:  Size  Location     Type
  6680 ;;                  1    wreg      void 
  6681 ;; Registers used:
  6682 ;;		wreg, fsr0l, fsr0h, status,2, status,0, btemp+1, pclath, cstack
  6683 ;; Tracked objects:
  6684 ;;		On entry : 0/0
  6685 ;;		On exit  : 0/0
  6686 ;;		Unchanged: 0/0
  6687 ;; Data sizes:     COMMON   BANK0   BANK1   BANK3   BANK2
  6688 ;;      Params:         0       2       0       0       0
  6689 ;;      Locals:         0       1       0       0       0
  6690 ;;      Temps:          0       1       0       0       0
  6691 ;;      Totals:         0       4       0       0       0
  6692 ;;Total ram usage:        4 bytes
  6693 ;; Hardware stack levels used: 1
  6694 ;; Hardware stack levels required when called: 4
  6695 ;; This function calls:
  6696 ;;		_byte_write_EEPROM
  6697 ;; This function is called by:
  6698 ;;		_main
  6699 ;;		_log_car_event
  6700 ;; This function uses a non-reentrant model
  6701 ;;
  6702                           
  6703                           
  6704                           ;psect for function _str_write_EEPROM
  6705  124E                     _str_write_EEPROM:
  6706                           
  6707                           ;incstack = 0
  6708                           ; Regs used in _str_write_EEPROM: [wreg-fsr0h+status,2+status,0+btemp+1+pclath+cstack]
  6709                           ;str_write_EEPROM@addr stored from wreg
  6710  124E  1283               	bcf	3,5	;RP0=0, select bank0
  6711  124F  1303               	bcf	3,6	;RP1=0, select bank0
  6712  1250  00A3               	movwf	str_write_EEPROM@addr
  6713  1251                     l4159:
  6714                           
  6715                           ;EEPROM.c: 60: void str_write_EEPROM(unsigned char addr, char *data);EEPROM.c: 61: {;EEP
      +                          ROM.c: 62:     while(*data != 0)
  6716  1251  2A70               	goto	l4167
  6717  1252                     l4161:
  6718                           
  6719                           ;EEPROM.c: 63:     {;EEPROM.c: 64:         byte_write_EEPROM(addr, *data);
  6720  1252  0821               	movf	str_write_EEPROM@data+1,w
  6721  1253  00FF               	movwf	btemp+1
  6722  1254  0820               	movf	str_write_EEPROM@data,w
  6723  1255  0084               	movwf	4
  6724  1256  160A  158A  2000  160A  118A  	fcall	stringtab
  6725  125B  00A2               	movwf	??_str_write_EEPROM
  6726  125C  0822               	movf	??_str_write_EEPROM,w
  6727  125D  00F5               	movwf	byte_write_EEPROM@data
  6728  125E  0823               	movf	str_write_EEPROM@addr,w
  6729  125F  160A  158A  27E2  160A  118A  	fcall	_byte_write_EEPROM
  6730  1264                     l4163:
  6731                           
  6732                           ;EEPROM.c: 65:         data++;
  6733  1264  3001               	movlw	1
  6734  1265  1283               	bcf	3,5	;RP0=0, select bank0
  6735  1266  1303               	bcf	3,6	;RP1=0, select bank0
  6736  1267  07A0               	addwf	str_write_EEPROM@data,f
  6737  1268  1803               	skipnc
  6738  1269  0AA1               	incf	str_write_EEPROM@data+1,f
  6739  126A  3000               	movlw	0
  6740  126B  07A1               	addwf	str_write_EEPROM@data+1,f
  6741  126C                     l4165:
  6742                           
  6743                           ;EEPROM.c: 66:         addr++;
  6744  126C  3001               	movlw	1
  6745  126D  00A2               	movwf	??_str_write_EEPROM
  6746  126E  0822               	movf	??_str_write_EEPROM,w
  6747  126F  07A3               	addwf	str_write_EEPROM@addr,f
  6748  1270                     l4167:
  6749                           
  6750                           ;EEPROM.c: 62:     while(*data != 0)
  6751  1270  0821               	movf	str_write_EEPROM@data+1,w
  6752  1271  00FF               	movwf	btemp+1
  6753  1272  0820               	movf	str_write_EEPROM@data,w
  6754  1273  0084               	movwf	4
  6755  1274  160A  158A  2000  160A  118A  	fcall	stringtab
  6756  1279  3A00               	xorlw	0
  6757  127A  1D03               	skipz
  6758  127B  2A7D               	goto	u3451
  6759  127C  2A7E               	goto	u3450
  6760  127D                     u3451:
  6761  127D  2A52               	goto	l4161
  6762  127E                     u3450:
  6763  127E                     l275:
  6764  127E  0008               	return
  6765  127F                     __end_of_str_write_EEPROM:
  6766                           
  6767                           	psect	text12
  6768  13F2                     __ptext12:	
  6769 ;; *************** function _init_config *****************
  6770 ;; Defined at:
  6771 ;;		line 17 in file "main.c"
  6772 ;; Parameters:    Size  Location     Type
  6773 ;;		None
  6774 ;; Auto vars:     Size  Location     Type
  6775 ;;		None
  6776 ;; Return value:  Size  Location     Type
  6777 ;;                  1    wreg      void 
  6778 ;; Registers used:
  6779 ;;		wreg, status,2, status,0, pclath, cstack
  6780 ;; Tracked objects:
  6781 ;;		On entry : 0/0
  6782 ;;		On exit  : 0/0
  6783 ;;		Unchanged: 0/0
  6784 ;; Data sizes:     COMMON   BANK0   BANK1   BANK3   BANK2
  6785 ;;      Params:         0       0       0       0       0
  6786 ;;      Locals:         0       0       0       0       0
  6787 ;;      Temps:          0       0       0       0       0
  6788 ;;      Totals:         0       0       0       0       0
  6789 ;;Total ram usage:        0 bytes
  6790 ;; Hardware stack levels used: 1
  6791 ;; Hardware stack levels required when called: 6
  6792 ;; This function calls:
  6793 ;;		_init_adc
  6794 ;;		_init_clcd
  6795 ;;		_init_digital_keypad
  6796 ;;		_init_ds1307
  6797 ;;		_init_i2c
  6798 ;;		_init_timer2
  6799 ;;		_init_uart
  6800 ;; This function is called by:
  6801 ;;		_main
  6802 ;; This function uses a non-reentrant model
  6803 ;;
  6804                           
  6805                           
  6806                           ;psect for function _init_config
  6807  13F2                     _init_config:
  6808  13F2                     l4431:	
  6809                           ;incstack = 0
  6810                           ; Regs used in _init_config: [wreg+status,2+status,0+pclath+cstack]
  6811                           
  6812                           
  6813                           ;main.c: 19:     init_uart(9600);
  6814  13F2  3000               	movlw	0
  6815  13F3  1283               	bcf	3,5	;RP0=0, select bank0
  6816  13F4  1303               	bcf	3,6	;RP1=0, select bank0
  6817  13F5  00B0               	movwf	init_i2c@baud+3
  6818  13F6  3001               	movlw	1
  6819  13F7  00AF               	movwf	init_i2c@baud+2
  6820  13F8  3086               	movlw	134
  6821  13F9  00AE               	movwf	init_i2c@baud+1
  6822  13FA  30A0               	movlw	160
  6823  13FB  00AD               	movwf	init_i2c@baud
  6824  13FC  160A  118A  22E4  160A  118A  	fcall	_init_i2c
  6825                           
  6826                           ;main.c: 21:     PEIE = 1;
  6827  1401  160A  158A  27C7  160A  118A  	fcall	_init_ds1307
  6828                           
  6829                           ;main.c: 23: 
  6830  1406  160A  118A  2161  160A  118A  	fcall	_init_digital_keypad
  6831                           
  6832                           ;main.c: 25: 
  6833  140B  160A  118A  2167  160A  118A  	fcall	_init_clcd
  6834  1410                     l4433:
  6835                           
  6836                           ;main.c: 27:     const char *gear[6] = {"GN", "GR", "G1", "G2", "G3", "G4"};
  6837  1410  160A  158A  26FD  160A  118A  	fcall	_init_adc
  6838  1415                     l4435:
  6839                           
  6840                           ;main.c: 29:     char event[] = "ON";
  6841  1415  160A  158A  271E  160A  118A  	fcall	_init_timer2
  6842  141A                     l4437:
  6843                           
  6844                           ;main.c: 31:     unsigned char key, key_level;
  6845  141A  3000               	movlw	0
  6846  141B  1283               	bcf	3,5	;RP0=0, select bank0
  6847  141C  1303               	bcf	3,6	;RP1=0, select bank0
  6848  141D  00B0               	movwf	init_uart@baud+3
  6849  141E  3000               	movlw	0
  6850  141F  00AF               	movwf	init_uart@baud+2
  6851  1420  3025               	movlw	37
  6852  1421  00AE               	movwf	init_uart@baud+1
  6853  1422  3080               	movlw	128
  6854  1423  00AD               	movwf	init_uart@baud
  6855  1424  160A  118A  227F  160A  118A  	fcall	_init_uart
  6856  1429                     l4439:
  6857                           
  6858                           ;main.c: 32:     unsigned int gr = 0, delay1 = 0, delay2 = 0, delay3 = 0, delay4 = 0, de
      +                          lay5 = 0;
  6859  1429  178B               	bsf	11,7	;volatile
  6860  142A                     l4441:
  6861                           
  6862                           ;main.c: 33:     init_config();
  6863  142A  170B               	bsf	11,6	;volatile
  6864  142B                     l178:
  6865  142B  0008               	return
  6866  142C                     __end_of_init_config:
  6867                           
  6868                           	psect	text13
  6869  127F                     __ptext13:	
  6870 ;; *************** function _init_uart *****************
  6871 ;; Defined at:
  6872 ;;		line 4 in file "uart.c"
  6873 ;; Parameters:    Size  Location     Type
  6874 ;;  baud            4   13[BANK0 ] unsigned long 
  6875 ;; Auto vars:     Size  Location     Type
  6876 ;;		None
  6877 ;; Return value:  Size  Location     Type
  6878 ;;                  1    wreg      void 
  6879 ;; Registers used:
  6880 ;;		wreg, status,2, status,0, pclath, cstack
  6881 ;; Tracked objects:
  6882 ;;		On entry : 0/0
  6883 ;;		On exit  : 0/0
  6884 ;;		Unchanged: 0/0
  6885 ;; Data sizes:     COMMON   BANK0   BANK1   BANK3   BANK2
  6886 ;;      Params:         0       4       0       0       0
  6887 ;;      Locals:         0       0       0       0       0
  6888 ;;      Temps:          0       4       0       0       0
  6889 ;;      Totals:         0       8       0       0       0
  6890 ;;Total ram usage:        8 bytes
  6891 ;; Hardware stack levels used: 1
  6892 ;; Hardware stack levels required when called: 2
  6893 ;; This function calls:
  6894 ;;		___lldiv
  6895 ;; This function is called by:
  6896 ;;		_init_config
  6897 ;; This function uses a non-reentrant model
  6898 ;;
  6899                           
  6900                           
  6901                           ;psect for function _init_uart
  6902  127F                     _init_uart:
  6903  127F                     l4249:	
  6904                           ;incstack = 0
  6905                           ; Regs used in _init_uart: [wreg+status,2+status,0+pclath+cstack]
  6906                           
  6907                           
  6908                           ;uart.c: 4: void init_uart(unsigned long baud);uart.c: 5: {;uart.c: 7:     SPEN = 1;
  6909  127F  1283               	bcf	3,5	;RP0=0, select bank0
  6910  1280  1303               	bcf	3,6	;RP1=0, select bank0
  6911  1281  1798               	bsf	24,7	;volatile
  6912                           
  6913                           ;uart.c: 10:     CREN = 1;
  6914  1282  1618               	bsf	24,4	;volatile
  6915  1283                     l4251:
  6916                           
  6917                           ;uart.c: 13:     SPBRG = (20000000 / (16 * baud)) - 1;
  6918  1283  082D               	movf	init_uart@baud,w
  6919  1284  00B1               	movwf	??_init_uart
  6920  1285  082E               	movf	init_uart@baud+1,w
  6921  1286  00B2               	movwf	??_init_uart+1
  6922  1287  082F               	movf	init_uart@baud+2,w
  6923  1288  00B3               	movwf	??_init_uart+2
  6924  1289  0830               	movf	init_uart@baud+3,w
  6925  128A  00B4               	movwf	??_init_uart+3
  6926  128B  3004               	movlw	4
  6927  128C                     u3585:
  6928  128C  1003               	clrc
  6929  128D  0DB1               	rlf	??_init_uart,f
  6930  128E  0DB2               	rlf	??_init_uart+1,f
  6931  128F  0DB3               	rlf	??_init_uart+2,f
  6932  1290  0DB4               	rlf	??_init_uart+3,f
  6933  1291                     u3580:
  6934  1291  3EFF               	addlw	-1
  6935  1292  1D03               	skipz
  6936  1293  2A8C               	goto	u3585
  6937  1294  0834               	movf	??_init_uart+3,w
  6938  1295  00A3               	movwf	___lldiv@divisor+3
  6939  1296  0833               	movf	??_init_uart+2,w
  6940  1297  00A2               	movwf	___lldiv@divisor+2
  6941  1298  0832               	movf	??_init_uart+1,w
  6942  1299  00A1               	movwf	___lldiv@divisor+1
  6943  129A  0831               	movf	??_init_uart,w
  6944  129B  00A0               	movwf	___lldiv@divisor
  6945  129C  3001               	movlw	1
  6946  129D  00A7               	movwf	___lldiv@dividend+3
  6947  129E  3031               	movlw	49
  6948  129F  00A6               	movwf	___lldiv@dividend+2
  6949  12A0  302D               	movlw	45
  6950  12A1  00A5               	movwf	___lldiv@dividend+1
  6951  12A2  3000               	movlw	0
  6952  12A3  00A4               	movwf	___lldiv@dividend
  6953  12A4  160A  118A  2668  160A  118A  	fcall	___lldiv
  6954  12A9  1283               	bcf	3,5	;RP0=0, select bank0
  6955  12AA  1303               	bcf	3,6	;RP1=0, select bank0
  6956  12AB  0820               	movf	?___lldiv,w
  6957  12AC  3EFF               	addlw	255
  6958  12AD  1683               	bsf	3,5	;RP0=1, select bank1
  6959  12AE  1303               	bcf	3,6	;RP1=0, select bank1
  6960  12AF  0099               	movwf	25	;volatile
  6961  12B0                     l552:
  6962  12B0  0008               	return
  6963  12B1                     __end_of_init_uart:
  6964                           
  6965                           	psect	text14
  6966  1F1E                     __ptext14:	
  6967 ;; *************** function _init_timer2 *****************
  6968 ;; Defined at:
  6969 ;;		line 3 in file "timers.c"
  6970 ;; Parameters:    Size  Location     Type
  6971 ;;		None
  6972 ;; Auto vars:     Size  Location     Type
  6973 ;;		None
  6974 ;; Return value:  Size  Location     Type
  6975 ;;                  1    wreg      void 
  6976 ;; Registers used:
  6977 ;;		wreg
  6978 ;; Tracked objects:
  6979 ;;		On entry : 0/0
  6980 ;;		On exit  : 0/0
  6981 ;;		Unchanged: 0/0
  6982 ;; Data sizes:     COMMON   BANK0   BANK1   BANK3   BANK2
  6983 ;;      Params:         0       0       0       0       0
  6984 ;;      Locals:         0       0       0       0       0
  6985 ;;      Temps:          0       0       0       0       0
  6986 ;;      Totals:         0       0       0       0       0
  6987 ;;Total ram usage:        0 bytes
  6988 ;; Hardware stack levels used: 1
  6989 ;; Hardware stack levels required when called: 1
  6990 ;; This function calls:
  6991 ;;		Nothing
  6992 ;; This function is called by:
  6993 ;;		_init_config
  6994 ;; This function uses a non-reentrant model
  6995 ;;
  6996                           
  6997                           
  6998                           ;psect for function _init_timer2
  6999  1F1E                     _init_timer2:
  7000  1F1E                     l4243:	
  7001                           ;incstack = 0
  7002                           ; Regs used in _init_timer2: [wreg]
  7003                           
  7004                           
  7005                           ;timers.c: 6:     T2CKPS0 = 1;
  7006  1F1E  1283               	bcf	3,5	;RP0=0, select bank0
  7007  1F1F  1303               	bcf	3,6	;RP1=0, select bank0
  7008  1F20  1412               	bsf	18,0	;volatile
  7009                           
  7010                           ;timers.c: 7:     T2CKPS1 = 1;
  7011  1F21  1492               	bsf	18,1	;volatile
  7012  1F22                     l4245:
  7013                           
  7014                           ;timers.c: 10:     PR2 = 250;
  7015  1F22  30FA               	movlw	250
  7016  1F23  1683               	bsf	3,5	;RP0=1, select bank1
  7017  1F24  1303               	bcf	3,6	;RP1=0, select bank1
  7018  1F25  0092               	movwf	18	;volatile
  7019  1F26                     l4247:
  7020                           
  7021                           ;timers.c: 13:     TMR2IE = 1;
  7022  1F26  148C               	bsf	12,1	;volatile
  7023  1F27                     l515:
  7024  1F27  0008               	return
  7025  1F28                     __end_of_init_timer2:
  7026                           
  7027                           	psect	text15
  7028  12E4                     __ptext15:	
  7029 ;; *************** function _init_i2c *****************
  7030 ;; Defined at:
  7031 ;;		line 4 in file "i2c.c"
  7032 ;; Parameters:    Size  Location     Type
  7033 ;;  baud            4   13[BANK0 ] unsigned long 
  7034 ;; Auto vars:     Size  Location     Type
  7035 ;;		None
  7036 ;; Return value:  Size  Location     Type
  7037 ;;                  1    wreg      void 
  7038 ;; Registers used:
  7039 ;;		wreg, status,2, status,0, pclath, cstack
  7040 ;; Tracked objects:
  7041 ;;		On entry : 0/0
  7042 ;;		On exit  : 0/0
  7043 ;;		Unchanged: 0/0
  7044 ;; Data sizes:     COMMON   BANK0   BANK1   BANK3   BANK2
  7045 ;;      Params:         0       4       0       0       0
  7046 ;;      Locals:         0       0       0       0       0
  7047 ;;      Temps:          0       4       0       0       0
  7048 ;;      Totals:         0       8       0       0       0
  7049 ;;Total ram usage:        8 bytes
  7050 ;; Hardware stack levels used: 1
  7051 ;; Hardware stack levels required when called: 2
  7052 ;; This function calls:
  7053 ;;		___lldiv
  7054 ;; This function is called by:
  7055 ;;		_init_config
  7056 ;; This function uses a non-reentrant model
  7057 ;;
  7058                           
  7059                           
  7060                           ;psect for function _init_i2c
  7061  12E4                     _init_i2c:
  7062  12E4                     l4233:	
  7063                           ;incstack = 0
  7064                           ; Regs used in _init_i2c: [wreg+status,2+status,0+pclath+cstack]
  7065                           
  7066                           
  7067                           ;i2c.c: 4: void init_i2c(unsigned long baud);i2c.c: 5: {;i2c.c: 7:     SSPM3 = 1;
  7068  12E4  1283               	bcf	3,5	;RP0=0, select bank0
  7069  12E5  1303               	bcf	3,6	;RP1=0, select bank0
  7070  12E6  1594               	bsf	20,3	;volatile
  7071  12E7                     l4235:
  7072                           
  7073                           ;i2c.c: 10:     SSPADD = (unsigned char)(20000000 / (4 * baud)) - 1;
  7074  12E7  082D               	movf	init_i2c@baud,w
  7075  12E8  00B1               	movwf	??_init_i2c
  7076  12E9  082E               	movf	init_i2c@baud+1,w
  7077  12EA  00B2               	movwf	??_init_i2c+1
  7078  12EB  082F               	movf	init_i2c@baud+2,w
  7079  12EC  00B3               	movwf	??_init_i2c+2
  7080  12ED  0830               	movf	init_i2c@baud+3,w
  7081  12EE  00B4               	movwf	??_init_i2c+3
  7082  12EF  3002               	movlw	2
  7083  12F0                     u3575:
  7084  12F0  1003               	clrc
  7085  12F1  0DB1               	rlf	??_init_i2c,f
  7086  12F2  0DB2               	rlf	??_init_i2c+1,f
  7087  12F3  0DB3               	rlf	??_init_i2c+2,f
  7088  12F4  0DB4               	rlf	??_init_i2c+3,f
  7089  12F5                     u3570:
  7090  12F5  3EFF               	addlw	-1
  7091  12F6  1D03               	skipz
  7092  12F7  2AF0               	goto	u3575
  7093  12F8  0834               	movf	??_init_i2c+3,w
  7094  12F9  00A3               	movwf	___lldiv@divisor+3
  7095  12FA  0833               	movf	??_init_i2c+2,w
  7096  12FB  00A2               	movwf	___lldiv@divisor+2
  7097  12FC  0832               	movf	??_init_i2c+1,w
  7098  12FD  00A1               	movwf	___lldiv@divisor+1
  7099  12FE  0831               	movf	??_init_i2c,w
  7100  12FF  00A0               	movwf	___lldiv@divisor
  7101  1300  3001               	movlw	1
  7102  1301  00A7               	movwf	___lldiv@dividend+3
  7103  1302  3031               	movlw	49
  7104  1303  00A6               	movwf	___lldiv@dividend+2
  7105  1304  302D               	movlw	45
  7106  1305  00A5               	movwf	___lldiv@dividend+1
  7107  1306  3000               	movlw	0
  7108  1307  00A4               	movwf	___lldiv@dividend
  7109  1308  160A  118A  2668  160A  118A  	fcall	___lldiv
  7110  130D  1283               	bcf	3,5	;RP0=0, select bank0
  7111  130E  1303               	bcf	3,6	;RP1=0, select bank0
  7112  130F  0820               	movf	?___lldiv,w
  7113  1310  3EFF               	addlw	255
  7114  1311  1683               	bsf	3,5	;RP0=1, select bank1
  7115  1312  1303               	bcf	3,6	;RP1=0, select bank1
  7116  1313  0093               	movwf	19	;volatile
  7117  1314                     l4237:
  7118                           
  7119                           ;i2c.c: 13:     SSPEN = 1;
  7120  1314  1283               	bcf	3,5	;RP0=0, select bank0
  7121  1315  1303               	bcf	3,6	;RP1=0, select bank0
  7122  1316  1694               	bsf	20,5	;volatile
  7123  1317                     l84:
  7124  1317  0008               	return
  7125  1318                     __end_of_init_i2c:
  7126                           
  7127                           	psect	text16
  7128  1668                     __ptext16:	
  7129 ;; *************** function ___lldiv *****************
  7130 ;; Defined at:
  7131 ;;		line 5 in file "C:\Program Files\Microchip\xc8\v2.32\pic\sources\c90\common\__lldiv.c"
  7132 ;; Parameters:    Size  Location     Type
  7133 ;;  divisor         4    0[BANK0 ] unsigned long 
  7134 ;;  dividend        4    4[BANK0 ] unsigned long 
  7135 ;; Auto vars:     Size  Location     Type
  7136 ;;  quotient        4    8[BANK0 ] unsigned long 
  7137 ;;  counter         1   12[BANK0 ] unsigned char 
  7138 ;; Return value:  Size  Location     Type
  7139 ;;                  4    0[BANK0 ] unsigned long 
  7140 ;; Registers used:
  7141 ;;		wreg, status,2, status,0
  7142 ;; Tracked objects:
  7143 ;;		On entry : 0/0
  7144 ;;		On exit  : 0/0
  7145 ;;		Unchanged: 0/0
  7146 ;; Data sizes:     COMMON   BANK0   BANK1   BANK3   BANK2
  7147 ;;      Params:         0       8       0       0       0
  7148 ;;      Locals:         0       5       0       0       0
  7149 ;;      Temps:          1       0       0       0       0
  7150 ;;      Totals:         1      13       0       0       0
  7151 ;;Total ram usage:       14 bytes
  7152 ;; Hardware stack levels used: 1
  7153 ;; Hardware stack levels required when called: 1
  7154 ;; This function calls:
  7155 ;;		Nothing
  7156 ;; This function is called by:
  7157 ;;		_init_i2c
  7158 ;;		_init_uart
  7159 ;; This function uses a non-reentrant model
  7160 ;;
  7161                           
  7162                           
  7163                           ;psect for function ___lldiv
  7164  1668                     ___lldiv:
  7165  1668                     l4187:	
  7166                           ;incstack = 0
  7167                           ; Regs used in ___lldiv: [wreg+status,2+status,0]
  7168                           
  7169  1668  3000               	movlw	0
  7170  1669  1283               	bcf	3,5	;RP0=0, select bank0
  7171  166A  1303               	bcf	3,6	;RP1=0, select bank0
  7172  166B  00AB               	movwf	___lldiv@quotient+3
  7173  166C  3000               	movlw	0
  7174  166D  00AA               	movwf	___lldiv@quotient+2
  7175  166E  3000               	movlw	0
  7176  166F  00A9               	movwf	___lldiv@quotient+1
  7177  1670  3000               	movlw	0
  7178  1671  00A8               	movwf	___lldiv@quotient
  7179  1672  0823               	movf	___lldiv@divisor+3,w
  7180  1673  0422               	iorwf	___lldiv@divisor+2,w
  7181  1674  0421               	iorwf	___lldiv@divisor+1,w
  7182  1675  0420               	iorwf	___lldiv@divisor,w
  7183  1676  1903               	skipnz
  7184  1677  2E79               	goto	u3491
  7185  1678  2E7A               	goto	u3490
  7186  1679                     u3491:
  7187  1679  2EC7               	goto	l4207
  7188  167A                     u3490:
  7189  167A                     l4189:
  7190  167A  01AC               	clrf	___lldiv@counter
  7191  167B  0AAC               	incf	___lldiv@counter,f
  7192  167C  2E8A               	goto	l4193
  7193  167D                     l4191:
  7194  167D  3001               	movlw	1
  7195  167E  00F4               	movwf	??___lldiv
  7196  167F                     u3505:
  7197  167F  1003               	clrc
  7198  1680  0DA0               	rlf	___lldiv@divisor,f
  7199  1681  0DA1               	rlf	___lldiv@divisor+1,f
  7200  1682  0DA2               	rlf	___lldiv@divisor+2,f
  7201  1683  0DA3               	rlf	___lldiv@divisor+3,f
  7202  1684  0BF4               	decfsz	??___lldiv,f
  7203  1685  2E7F               	goto	u3505
  7204  1686  3001               	movlw	1
  7205  1687  00F4               	movwf	??___lldiv
  7206  1688  0874               	movf	??___lldiv,w
  7207  1689  07AC               	addwf	___lldiv@counter,f
  7208  168A                     l4193:
  7209  168A  1FA3               	btfss	___lldiv@divisor+3,7
  7210  168B  2E8D               	goto	u3511
  7211  168C  2E8E               	goto	u3510
  7212  168D                     u3511:
  7213  168D  2E7D               	goto	l4191
  7214  168E                     u3510:
  7215  168E                     l4195:
  7216  168E  3001               	movlw	1
  7217  168F  00F4               	movwf	??___lldiv
  7218  1690                     u3525:
  7219  1690  1003               	clrc
  7220  1691  0DA8               	rlf	___lldiv@quotient,f
  7221  1692  0DA9               	rlf	___lldiv@quotient+1,f
  7222  1693  0DAA               	rlf	___lldiv@quotient+2,f
  7223  1694  0DAB               	rlf	___lldiv@quotient+3,f
  7224  1695  0BF4               	decfsz	??___lldiv,f
  7225  1696  2E90               	goto	u3525
  7226  1697                     l4197:
  7227  1697  0823               	movf	___lldiv@divisor+3,w
  7228  1698  0227               	subwf	___lldiv@dividend+3,w
  7229  1699  1D03               	skipz
  7230  169A  2EA5               	goto	u3535
  7231  169B  0822               	movf	___lldiv@divisor+2,w
  7232  169C  0226               	subwf	___lldiv@dividend+2,w
  7233  169D  1D03               	skipz
  7234  169E  2EA5               	goto	u3535
  7235  169F  0821               	movf	___lldiv@divisor+1,w
  7236  16A0  0225               	subwf	___lldiv@dividend+1,w
  7237  16A1  1D03               	skipz
  7238  16A2  2EA5               	goto	u3535
  7239  16A3  0820               	movf	___lldiv@divisor,w
  7240  16A4  0224               	subwf	___lldiv@dividend,w
  7241  16A5                     u3535:
  7242  16A5  1C03               	skipc
  7243  16A6  2EA8               	goto	u3531
  7244  16A7  2EA9               	goto	u3530
  7245  16A8                     u3531:
  7246  16A8  2EB8               	goto	l4203
  7247  16A9                     u3530:
  7248  16A9                     l4199:
  7249  16A9  0820               	movf	___lldiv@divisor,w
  7250  16AA  02A4               	subwf	___lldiv@dividend,f
  7251  16AB  0821               	movf	___lldiv@divisor+1,w
  7252  16AC  1C03               	skipc
  7253  16AD  0F21               	incfsz	___lldiv@divisor+1,w
  7254  16AE  02A5               	subwf	___lldiv@dividend+1,f
  7255  16AF  0822               	movf	___lldiv@divisor+2,w
  7256  16B0  1C03               	skipc
  7257  16B1  0F22               	incfsz	___lldiv@divisor+2,w
  7258  16B2  02A6               	subwf	___lldiv@dividend+2,f
  7259  16B3  0823               	movf	___lldiv@divisor+3,w
  7260  16B4  1C03               	skipc
  7261  16B5  0F23               	incfsz	___lldiv@divisor+3,w
  7262  16B6  02A7               	subwf	___lldiv@dividend+3,f
  7263  16B7                     l4201:
  7264  16B7  1428               	bsf	___lldiv@quotient,0
  7265  16B8                     l4203:
  7266  16B8  3001               	movlw	1
  7267  16B9                     u3545:
  7268  16B9  1003               	clrc
  7269  16BA  0CA3               	rrf	___lldiv@divisor+3,f
  7270  16BB  0CA2               	rrf	___lldiv@divisor+2,f
  7271  16BC  0CA1               	rrf	___lldiv@divisor+1,f
  7272  16BD  0CA0               	rrf	___lldiv@divisor,f
  7273  16BE  3EFF               	addlw	-1
  7274  16BF  1D03               	skipz
  7275  16C0  2EB9               	goto	u3545
  7276  16C1                     l4205:
  7277  16C1  3001               	movlw	1
  7278  16C2  02AC               	subwf	___lldiv@counter,f
  7279  16C3  1D03               	btfss	3,2
  7280  16C4  2EC6               	goto	u3551
  7281  16C5  2EC7               	goto	u3550
  7282  16C6                     u3551:
  7283  16C6  2E8E               	goto	l4195
  7284  16C7                     u3550:
  7285  16C7                     l4207:
  7286  16C7  082B               	movf	___lldiv@quotient+3,w
  7287  16C8  00A3               	movwf	?___lldiv+3
  7288  16C9  082A               	movf	___lldiv@quotient+2,w
  7289  16CA  00A2               	movwf	?___lldiv+2
  7290  16CB  0829               	movf	___lldiv@quotient+1,w
  7291  16CC  00A1               	movwf	?___lldiv+1
  7292  16CD  0828               	movf	___lldiv@quotient,w
  7293  16CE  00A0               	movwf	?___lldiv
  7294  16CF                     l692:
  7295  16CF  0008               	return
  7296  16D0                     __end_of___lldiv:
  7297                           
  7298                           	psect	text17
  7299  1FC7                     __ptext17:	
  7300 ;; *************** function _init_ds1307 *****************
  7301 ;; Defined at:
  7302 ;;		line 5 in file "ds1307.c"
  7303 ;; Parameters:    Size  Location     Type
  7304 ;;		None
  7305 ;; Auto vars:     Size  Location     Type
  7306 ;;  dummy           1   23[BANK0 ] unsigned char 
  7307 ;; Return value:  Size  Location     Type
  7308 ;;                  1    wreg      void 
  7309 ;; Registers used:
  7310 ;;		wreg, status,2, status,0, pclath, cstack
  7311 ;; Tracked objects:
  7312 ;;		On entry : 0/0
  7313 ;;		On exit  : 0/0
  7314 ;;		Unchanged: 0/0
  7315 ;; Data sizes:     COMMON   BANK0   BANK1   BANK3   BANK2
  7316 ;;      Params:         0       0       0       0       0
  7317 ;;      Locals:         0       1       0       0       0
  7318 ;;      Temps:          0       1       0       0       0
  7319 ;;      Totals:         0       2       0       0       0
  7320 ;;Total ram usage:        2 bytes
  7321 ;; Hardware stack levels used: 1
  7322 ;; Hardware stack levels required when called: 5
  7323 ;; This function calls:
  7324 ;;		_read_ds1307
  7325 ;;		_write_ds1307
  7326 ;; This function is called by:
  7327 ;;		_init_config
  7328 ;; This function uses a non-reentrant model
  7329 ;;
  7330                           
  7331                           
  7332                           ;psect for function _init_ds1307
  7333  1FC7                     _init_ds1307:
  7334  1FC7                     l4227:	
  7335                           ;incstack = 0
  7336                           ; Regs used in _init_ds1307: [wreg+status,2+status,0+pclath+cstack]
  7337                           
  7338                           
  7339                           ;ds1307.c: 7:     unsigned char dummy;;ds1307.c: 9:     dummy = read_ds1307(0x00);
  7340  1FC7  3000               	movlw	0
  7341  1FC8  160A  118A  2318  160A  158A  	fcall	_read_ds1307
  7342  1FCD  1283               	bcf	3,5	;RP0=0, select bank0
  7343  1FCE  1303               	bcf	3,6	;RP1=0, select bank0
  7344  1FCF  00B6               	movwf	??_init_ds1307
  7345  1FD0  0836               	movf	??_init_ds1307,w
  7346  1FD1  00B7               	movwf	init_ds1307@dummy
  7347  1FD2                     l4229:
  7348                           
  7349                           ;ds1307.c: 10:     dummy = dummy & 0x7F;
  7350  1FD2  0837               	movf	init_ds1307@dummy,w
  7351  1FD3  397F               	andlw	127
  7352  1FD4  00B6               	movwf	??_init_ds1307
  7353  1FD5  0836               	movf	??_init_ds1307,w
  7354  1FD6  00B7               	movwf	init_ds1307@dummy
  7355  1FD7                     l4231:
  7356                           
  7357                           ;ds1307.c: 11:     write_ds1307(0x00, dummy);
  7358  1FD7  0837               	movf	init_ds1307@dummy,w
  7359  1FD8  00B6               	movwf	??_init_ds1307
  7360  1FD9  0836               	movf	??_init_ds1307,w
  7361  1FDA  00B5               	movwf	write_ds1307@data
  7362  1FDB  3000               	movlw	0
  7363  1FDC  160A  118A  2172  160A  158A  	fcall	_write_ds1307
  7364  1FE1                     l49:
  7365  1FE1  0008               	return
  7366  1FE2                     __end_of_init_ds1307:
  7367                           
  7368                           	psect	text18
  7369  1172                     __ptext18:	
  7370 ;; *************** function _write_ds1307 *****************
  7371 ;; Defined at:
  7372 ;;		line 29 in file "ds1307.c"
  7373 ;; Parameters:    Size  Location     Type
  7374 ;;  addr            1    wreg     unsigned char 
  7375 ;;  data            1   21[BANK0 ] unsigned char 
  7376 ;; Auto vars:     Size  Location     Type
  7377 ;;  addr            1    6[COMMON] unsigned char 
  7378 ;; Return value:  Size  Location     Type
  7379 ;;                  1    wreg      void 
  7380 ;; Registers used:
  7381 ;;		wreg, status,2, status,0, pclath, cstack
  7382 ;; Tracked objects:
  7383 ;;		On entry : 0/0
  7384 ;;		On exit  : 0/0
  7385 ;;		Unchanged: 0/0
  7386 ;; Data sizes:     COMMON   BANK0   BANK1   BANK3   BANK2
  7387 ;;      Params:         0       1       0       0       0
  7388 ;;      Locals:         1       0       0       0       0
  7389 ;;      Temps:          0       0       0       0       0
  7390 ;;      Totals:         1       1       0       0       0
  7391 ;;Total ram usage:        2 bytes
  7392 ;; Hardware stack levels used: 1
  7393 ;; Hardware stack levels required when called: 3
  7394 ;; This function calls:
  7395 ;;		_i2c_start
  7396 ;;		_i2c_stop
  7397 ;;		_i2c_write
  7398 ;; This function is called by:
  7399 ;;		_init_ds1307
  7400 ;;		_main
  7401 ;; This function uses a non-reentrant model
  7402 ;;
  7403                           
  7404                           
  7405                           ;psect for function _write_ds1307
  7406  1172                     _write_ds1307:
  7407                           
  7408                           ;incstack = 0
  7409                           ; Regs used in _write_ds1307: [wreg+status,2+status,0+pclath+cstack]
  7410                           ;write_ds1307@addr stored from wreg
  7411  1172  00F6               	movwf	write_ds1307@addr
  7412  1173                     l4157:
  7413                           
  7414                           ;ds1307.c: 29: void write_ds1307(unsigned char addr, unsigned char data);ds1307.c: 30: {
      +                          ;ds1307.c: 31:     i2c_start();
  7415  1173  160A  158A  270C  160A  118A  	fcall	_i2c_start
  7416                           
  7417                           ;ds1307.c: 32:     i2c_write(0b11010000);
  7418  1178  30D0               	movlw	208
  7419  1179  160A  158A  2728  160A  118A  	fcall	_i2c_write
  7420                           
  7421                           ;ds1307.c: 33:     i2c_write(addr);
  7422  117E  0876               	movf	write_ds1307@addr,w
  7423  117F  160A  158A  2728  160A  118A  	fcall	_i2c_write
  7424                           
  7425                           ;ds1307.c: 34:     i2c_write(data);
  7426  1184  1283               	bcf	3,5	;RP0=0, select bank0
  7427  1185  1303               	bcf	3,6	;RP1=0, select bank0
  7428  1186  0835               	movf	write_ds1307@data,w
  7429  1187  160A  158A  2728  160A  118A  	fcall	_i2c_write
  7430                           
  7431                           ;ds1307.c: 35:     i2c_stop();
  7432  118C  160A  158A  2715  160A  118A  	fcall	_i2c_stop
  7433  1191                     l55:
  7434  1191  0008               	return
  7435  1192                     __end_of_write_ds1307:
  7436                           
  7437                           	psect	text19
  7438  1161                     __ptext19:	
  7439 ;; *************** function _init_digital_keypad *****************
  7440 ;; Defined at:
  7441 ;;		line 4 in file "digital_keypad.c"
  7442 ;; Parameters:    Size  Location     Type
  7443 ;;		None
  7444 ;; Auto vars:     Size  Location     Type
  7445 ;;		None
  7446 ;; Return value:  Size  Location     Type
  7447 ;;                  1    wreg      void 
  7448 ;; Registers used:
  7449 ;;		wreg, status,2
  7450 ;; Tracked objects:
  7451 ;;		On entry : 0/0
  7452 ;;		On exit  : 0/0
  7453 ;;		Unchanged: 0/0
  7454 ;; Data sizes:     COMMON   BANK0   BANK1   BANK3   BANK2
  7455 ;;      Params:         0       0       0       0       0
  7456 ;;      Locals:         0       0       0       0       0
  7457 ;;      Temps:          0       0       0       0       0
  7458 ;;      Totals:         0       0       0       0       0
  7459 ;;Total ram usage:        0 bytes
  7460 ;; Hardware stack levels used: 1
  7461 ;; Hardware stack levels required when called: 1
  7462 ;; This function calls:
  7463 ;;		Nothing
  7464 ;; This function is called by:
  7465 ;;		_init_config
  7466 ;; This function uses a non-reentrant model
  7467 ;;
  7468                           
  7469                           
  7470                           ;psect for function _init_digital_keypad
  7471  1161                     _init_digital_keypad:
  7472  1161                     l4239:	
  7473                           ;incstack = 0
  7474                           ; Regs used in _init_digital_keypad: [wreg+status,2]
  7475                           
  7476                           
  7477                           ;digital_keypad.c: 7:     TRISB = TRISB | 0x3F;
  7478  1161  1683               	bsf	3,5	;RP0=1, select bank1
  7479  1162  1303               	bcf	3,6	;RP1=0, select bank1
  7480  1163  0806               	movf	6,w	;volatile
  7481  1164  383F               	iorlw	63
  7482  1165  0086               	movwf	6	;volatile
  7483  1166                     l243:
  7484  1166  0008               	return
  7485  1167                     __end_of_init_digital_keypad:
  7486                           
  7487                           	psect	text20
  7488  1167                     __ptext20:	
  7489 ;; *************** function _init_clcd *****************
  7490 ;; Defined at:
  7491 ;;		line 44 in file "clcd.c"
  7492 ;; Parameters:    Size  Location     Type
  7493 ;;		None
  7494 ;; Auto vars:     Size  Location     Type
  7495 ;;		None
  7496 ;; Return value:  Size  Location     Type
  7497 ;;                  1    wreg      void 
  7498 ;; Registers used:
  7499 ;;		wreg, status,2, status,0, pclath, cstack
  7500 ;; Tracked objects:
  7501 ;;		On entry : 0/0
  7502 ;;		On exit  : 0/0
  7503 ;;		Unchanged: 0/0
  7504 ;; Data sizes:     COMMON   BANK0   BANK1   BANK3   BANK2
  7505 ;;      Params:         0       0       0       0       0
  7506 ;;      Locals:         0       0       0       0       0
  7507 ;;      Temps:          0       0       0       0       0
  7508 ;;      Totals:         0       0       0       0       0
  7509 ;;Total ram usage:        0 bytes
  7510 ;; Hardware stack levels used: 1
  7511 ;; Hardware stack levels required when called: 3
  7512 ;; This function calls:
  7513 ;;		_init_display_controller
  7514 ;; This function is called by:
  7515 ;;		_init_config
  7516 ;; This function uses a non-reentrant model
  7517 ;;
  7518                           
  7519                           
  7520                           ;psect for function _init_clcd
  7521  1167                     _init_clcd:
  7522  1167                     l4211:	
  7523                           ;incstack = 0
  7524                           ; Regs used in _init_clcd: [wreg+status,2+status,0+pclath+cstack]
  7525                           
  7526                           
  7527                           ;clcd.c: 47:     TRISD = 0x00;
  7528  1167  1683               	bsf	3,5	;RP0=1, select bank1
  7529  1168  1303               	bcf	3,6	;RP1=0, select bank1
  7530  1169  0188               	clrf	8	;volatile
  7531  116A                     l4213:
  7532                           
  7533                           ;clcd.c: 50:     TRISE2 = 0;
  7534  116A  1109               	bcf	9,2	;volatile
  7535  116B                     l4215:
  7536                           
  7537                           ;clcd.c: 51:     TRISE1 = 0;
  7538  116B  1089               	bcf	9,1	;volatile
  7539  116C                     l4217:
  7540                           
  7541                           ;clcd.c: 53:     init_display_controller();
  7542  116C  120A  118A  2782  160A  118A  	fcall	_init_display_controller
  7543  1171                     l23:
  7544  1171  0008               	return
  7545  1172                     __end_of_init_clcd:
  7546                           
  7547                           	psect	text21
  7548  0782                     __ptext21:	
  7549 ;; *************** function _init_display_controller *****************
  7550 ;; Defined at:
  7551 ;;		line 21 in file "clcd.c"
  7552 ;; Parameters:    Size  Location     Type
  7553 ;;		None
  7554 ;; Auto vars:     Size  Location     Type
  7555 ;;		None
  7556 ;; Return value:  Size  Location     Type
  7557 ;;                  1    wreg      void 
  7558 ;; Registers used:
  7559 ;;		wreg, status,2, status,0, pclath, cstack
  7560 ;; Tracked objects:
  7561 ;;		On entry : 0/0
  7562 ;;		On exit  : 0/0
  7563 ;;		Unchanged: 0/0
  7564 ;; Data sizes:     COMMON   BANK0   BANK1   BANK3   BANK2
  7565 ;;      Params:         0       0       0       0       0
  7566 ;;      Locals:         0       0       0       0       0
  7567 ;;      Temps:          0       2       0       0       0
  7568 ;;      Totals:         0       2       0       0       0
  7569 ;;Total ram usage:        2 bytes
  7570 ;; Hardware stack levels used: 1
  7571 ;; Hardware stack levels required when called: 2
  7572 ;; This function calls:
  7573 ;;		_clcd_write
  7574 ;; This function is called by:
  7575 ;;		_init_clcd
  7576 ;; This function uses a non-reentrant model
  7577 ;;
  7578                           
  7579                           
  7580                           ;psect for function _init_display_controller
  7581  0782                     _init_display_controller:
  7582  0782                     l4131:	
  7583                           ;incstack = 0
  7584                           ; Regs used in _init_display_controller: [wreg+status,2+status,0+pclath+cstack]
  7585                           
  7586                           
  7587                           ;clcd.c: 24:     _delay((unsigned long)((30)*(20000000/4000.0)));
  7588  0782  30C3               	movlw	195
  7589  0783  1283               	bcf	3,5	;RP0=0, select bank0
  7590  0784  1303               	bcf	3,6	;RP1=0, select bank0
  7591  0785  00A2               	movwf	??_init_display_controller+1
  7592  0786  30CC               	movlw	204
  7593  0787  00A1               	movwf	??_init_display_controller
  7594  0788                     u5407:
  7595  0788  0BA1               	decfsz	??_init_display_controller,f
  7596  0789  2F88               	goto	u5407
  7597  078A  0BA2               	decfsz	??_init_display_controller+1,f
  7598  078B  2F88               	goto	u5407
  7599  078C  0000               	nop
  7600  078D                     l4133:
  7601                           
  7602                           ;clcd.c: 27:     clcd_write(0x33, 0);
  7603  078D  01F4               	clrf	clcd_write@mode
  7604  078E  3033               	movlw	51
  7605  078F  160A  118A  2382  120A  118A  	fcall	_clcd_write
  7606  0794                     l4135:
  7607                           
  7608                           ;clcd.c: 28:     _delay((unsigned long)((4100)*(20000000/4000000.0)));
  7609  0794  301B               	movlw	27
  7610  0795  1283               	bcf	3,5	;RP0=0, select bank0
  7611  0796  1303               	bcf	3,6	;RP1=0, select bank0
  7612  0797  00A2               	movwf	??_init_display_controller+1
  7613  0798  309D               	movlw	157
  7614  0799  00A1               	movwf	??_init_display_controller
  7615  079A                     u5417:
  7616  079A  0BA1               	decfsz	??_init_display_controller,f
  7617  079B  2F9A               	goto	u5417
  7618  079C  0BA2               	decfsz	??_init_display_controller+1,f
  7619  079D  2F9A               	goto	u5417
  7620  079E  2F9F               	nop2
  7621                           
  7622                           ;clcd.c: 29:     clcd_write(0x33, 0);
  7623  079F  01F4               	clrf	clcd_write@mode
  7624  07A0  3033               	movlw	51
  7625  07A1  160A  118A  2382  120A  118A  	fcall	_clcd_write
  7626  07A6                     l4137:
  7627                           
  7628                           ;clcd.c: 30:     _delay((unsigned long)((100)*(20000000/4000000.0)));
  7629  07A6  30A5               	movlw	165
  7630  07A7  1283               	bcf	3,5	;RP0=0, select bank0
  7631  07A8  1303               	bcf	3,6	;RP1=0, select bank0
  7632  07A9  00A1               	movwf	??_init_display_controller
  7633  07AA                     u5427:
  7634  07AA  0BA1               	decfsz	??_init_display_controller,f
  7635  07AB  2FAA               	goto	u5427
  7636  07AC  2FAD               	nop2
  7637  07AD                     l4139:
  7638                           
  7639                           ;clcd.c: 31:     clcd_write(0x33, 0);
  7640  07AD  01F4               	clrf	clcd_write@mode
  7641  07AE  3033               	movlw	51
  7642  07AF  160A  118A  2382  120A  118A  	fcall	_clcd_write
  7643  07B4                     l4141:
  7644                           
  7645                           ;clcd.c: 32:     _delay((unsigned long)((1)*(20000000/4000000.0)));
  7646  07B4  2FB5               	nop2	;2 cycle nop
  7647  07B5  2FB6               	nop2	;2 cycle nop
  7648  07B6  0000               	nop
  7649  07B7                     l4143:
  7650                           
  7651                           ;clcd.c: 34:     clcd_write(0x02, 0);
  7652  07B7  01F4               	clrf	clcd_write@mode
  7653  07B8  3002               	movlw	2
  7654  07B9  160A  118A  2382  120A  118A  	fcall	_clcd_write
  7655  07BE                     l4145:
  7656                           
  7657                           ;clcd.c: 35:     _delay((unsigned long)((100)*(20000000/4000000.0)));
  7658  07BE  30A5               	movlw	165
  7659  07BF  1283               	bcf	3,5	;RP0=0, select bank0
  7660  07C0  1303               	bcf	3,6	;RP1=0, select bank0
  7661  07C1  00A1               	movwf	??_init_display_controller
  7662  07C2                     u5437:
  7663  07C2  0BA1               	decfsz	??_init_display_controller,f
  7664  07C3  2FC2               	goto	u5437
  7665  07C4  2FC5               	nop2
  7666                           
  7667                           ;clcd.c: 36:     clcd_write(0x28, 0);
  7668  07C5  01F4               	clrf	clcd_write@mode
  7669  07C6  3028               	movlw	40
  7670  07C7  160A  118A  2382  120A  118A  	fcall	_clcd_write
  7671  07CC                     l4147:
  7672                           
  7673                           ;clcd.c: 37:     _delay((unsigned long)((100)*(20000000/4000000.0)));
  7674  07CC  30A5               	movlw	165
  7675  07CD  1283               	bcf	3,5	;RP0=0, select bank0
  7676  07CE  1303               	bcf	3,6	;RP1=0, select bank0
  7677  07CF  00A1               	movwf	??_init_display_controller
  7678  07D0                     u5447:
  7679  07D0  0BA1               	decfsz	??_init_display_controller,f
  7680  07D1  2FD0               	goto	u5447
  7681  07D2  2FD3               	nop2
  7682  07D3                     l4149:
  7683                           
  7684                           ;clcd.c: 38:     clcd_write(0x01, 0);
  7685  07D3  01F4               	clrf	clcd_write@mode
  7686  07D4  3001               	movlw	1
  7687  07D5  160A  118A  2382  120A  118A  	fcall	_clcd_write
  7688                           
  7689                           ;clcd.c: 39:     _delay((unsigned long)((500)*(20000000/4000000.0)));
  7690  07DA  3004               	movlw	4
  7691  07DB  1283               	bcf	3,5	;RP0=0, select bank0
  7692  07DC  1303               	bcf	3,6	;RP1=0, select bank0
  7693  07DD  00A2               	movwf	??_init_display_controller+1
  7694  07DE  303D               	movlw	61
  7695  07DF  00A1               	movwf	??_init_display_controller
  7696  07E0                     u5457:
  7697  07E0  0BA1               	decfsz	??_init_display_controller,f
  7698  07E1  2FE0               	goto	u5457
  7699  07E2  0BA2               	decfsz	??_init_display_controller+1,f
  7700  07E3  2FE0               	goto	u5457
  7701  07E4                     l4151:
  7702                           
  7703                           ;clcd.c: 40:     clcd_write(0x0C, 0);
  7704  07E4  01F4               	clrf	clcd_write@mode
  7705  07E5  300C               	movlw	12
  7706  07E6  160A  118A  2382  120A  118A  	fcall	_clcd_write
  7707  07EB                     l4153:
  7708                           
  7709                           ;clcd.c: 41:     _delay((unsigned long)((100)*(20000000/4000000.0)));
  7710  07EB  30A5               	movlw	165
  7711  07EC  1283               	bcf	3,5	;RP0=0, select bank0
  7712  07ED  1303               	bcf	3,6	;RP1=0, select bank0
  7713  07EE  00A1               	movwf	??_init_display_controller
  7714  07EF                     u5467:
  7715  07EF  0BA1               	decfsz	??_init_display_controller,f
  7716  07F0  2FEF               	goto	u5467
  7717  07F1  2FF2               	nop2
  7718  07F2                     l20:
  7719  07F2  0008               	return
  7720  07F3                     __end_of_init_display_controller:
  7721                           
  7722                           	psect	text22
  7723  1EFD                     __ptext22:	
  7724 ;; *************** function _init_adc *****************
  7725 ;; Defined at:
  7726 ;;		line 3 in file "adc.c"
  7727 ;; Parameters:    Size  Location     Type
  7728 ;;		None
  7729 ;; Auto vars:     Size  Location     Type
  7730 ;;		None
  7731 ;; Return value:  Size  Location     Type
  7732 ;;                  1    wreg      void 
  7733 ;; Registers used:
  7734 ;;		None
  7735 ;; Tracked objects:
  7736 ;;		On entry : 0/0
  7737 ;;		On exit  : 0/0
  7738 ;;		Unchanged: 0/0
  7739 ;; Data sizes:     COMMON   BANK0   BANK1   BANK3   BANK2
  7740 ;;      Params:         0       0       0       0       0
  7741 ;;      Locals:         0       0       0       0       0
  7742 ;;      Temps:          0       0       0       0       0
  7743 ;;      Totals:         0       0       0       0       0
  7744 ;;Total ram usage:        0 bytes
  7745 ;; Hardware stack levels used: 1
  7746 ;; Hardware stack levels required when called: 1
  7747 ;; This function calls:
  7748 ;;		Nothing
  7749 ;; This function is called by:
  7750 ;;		_init_config
  7751 ;; This function uses a non-reentrant model
  7752 ;;
  7753                           
  7754                           
  7755                           ;psect for function _init_adc
  7756  1EFD                     _init_adc:
  7757  1EFD                     l4241:	
  7758                           ;incstack = 0
  7759                           ; Regs used in _init_adc: []
  7760                           
  7761                           
  7762                           ;adc.c: 6:     ADFM = 1;
  7763  1EFD  1683               	bsf	3,5	;RP0=1, select bank1
  7764  1EFE  1303               	bcf	3,6	;RP1=0, select bank1
  7765  1EFF  179F               	bsf	31,7	;volatile
  7766                           
  7767                           ;adc.c: 9:     ADON = 1;
  7768  1F00  1283               	bcf	3,5	;RP0=0, select bank0
  7769  1F01  1303               	bcf	3,6	;RP1=0, select bank0
  7770  1F02  141F               	bsf	31,0	;volatile
  7771  1F03                     l290:
  7772  1F03  0008               	return
  7773  1F04                     __end_of_init_adc:
  7774                           
  7775                           	psect	text23
  7776  091C                     __ptext23:	
  7777 ;; *************** function _download_log *****************
  7778 ;; Defined at:
  7779 ;;		line 574 in file "car_black_box_def.c"
  7780 ;; Parameters:    Size  Location     Type
  7781 ;;  reset_flag      1    wreg     unsigned char 
  7782 ;; Auto vars:     Size  Location     Type
  7783 ;;  reset_flag      1    7[BANK0 ] unsigned char 
  7784 ;;  ch              1    9[BANK0 ] unsigned char 
  7785 ;;  i               1    8[BANK0 ] unsigned char 
  7786 ;; Return value:  Size  Location     Type
  7787 ;;                  1    wreg      unsigned char 
  7788 ;; Registers used:
  7789 ;;		wreg, fsr0l, fsr0h, status,2, status,0, btemp+1, pclath, cstack
  7790 ;; Tracked objects:
  7791 ;;		On entry : 0/0
  7792 ;;		On exit  : 0/0
  7793 ;;		Unchanged: 0/0
  7794 ;; Data sizes:     COMMON   BANK0   BANK1   BANK3   BANK2
  7795 ;;      Params:         0       0       0       0       0
  7796 ;;      Locals:         0       3       0       0       0
  7797 ;;      Temps:          0       3       0       0       0
  7798 ;;      Totals:         0       6       0       0       0
  7799 ;;Total ram usage:        6 bytes
  7800 ;; Hardware stack levels used: 1
  7801 ;; Hardware stack levels required when called: 5
  7802 ;; This function calls:
  7803 ;;		___bmul
  7804 ;;		_clcd_print
  7805 ;;		_putchar
  7806 ;;		_puts
  7807 ;;		_read_EEPROM
  7808 ;; This function is called by:
  7809 ;;		_main
  7810 ;; This function uses a non-reentrant model
  7811 ;;
  7812                           
  7813                           
  7814                           ;psect for function _download_log
  7815  091C                     _download_log:
  7816                           
  7817                           ;incstack = 0
  7818                           ; Regs used in _download_log: [wreg-fsr0h+status,2+status,0+btemp+1+pclath+cstack]
  7819                           ;download_log@reset_flag stored from wreg
  7820  091C  1283               	bcf	3,5	;RP0=0, select bank0
  7821  091D  1303               	bcf	3,6	;RP1=0, select bank0
  7822  091E  00A7               	movwf	download_log@reset_flag
  7823  091F                     l4903:
  7824                           
  7825                           ;car_black_box_def.c: 574: char download_log(unsigned char reset_flag);car_black_box_def
      +                          .c: 575: {;car_black_box_def.c: 576:     char ch, i;;car_black_box_def.c: 577:     stati
      +                          c char log_pos;;car_black_box_def.c: 578:     if(pos == -1)
  7826  091F  0A77               	incf	_pos,w
  7827  0920  1D03               	skipz
  7828  0921  2926               	goto	u4491
  7829  0922  0A78               	incf	_pos+1,w
  7830  0923  1D03               	btfss	3,2
  7831  0924  2926               	goto	u4491
  7832  0925  2927               	goto	u4490
  7833  0926                     u4491:
  7834  0926  2944               	goto	l4915
  7835  0927                     u4490:
  7836  0927                     l4905:
  7837                           
  7838                           ;car_black_box_def.c: 579:     {;car_black_box_def.c: 580:         clcd_print("No Log Ex
      +                          ist", (0x80 + 1));
  7839  0927  3011               	movlw	low (STR_22| (0+32768))
  7840  0928  00A1               	movwf	clcd_print@str
  7841  0929  3091               	movlw	high (STR_22| (0+32768))
  7842  092A  00A2               	movwf	clcd_print@str+1
  7843  092B  3081               	movlw	129
  7844  092C  00A4               	movwf	??_download_log
  7845  092D  0824               	movf	??_download_log,w
  7846  092E  00A3               	movwf	clcd_print@addr
  7847  092F  160A  118A  22B1  120A  158A  	fcall	_clcd_print
  7848  0934                     l4907:
  7849                           
  7850                           ;car_black_box_def.c: 581:         _delay((unsigned long)((2000)*(20000000/4000.0)));
  7851  0934  3033               	movlw	51
  7852  0935  1283               	bcf	3,5	;RP0=0, select bank0
  7853  0936  1303               	bcf	3,6	;RP1=0, select bank0
  7854  0937  00A6               	movwf	??_download_log+2
  7855  0938  30BB               	movlw	187
  7856  0939  00A5               	movwf	??_download_log+1
  7857  093A  30DF               	movlw	223
  7858  093B  00A4               	movwf	??_download_log
  7859  093C                     u5477:
  7860  093C  0BA4               	decfsz	??_download_log,f
  7861  093D  293C               	goto	u5477
  7862  093E  0BA5               	decfsz	??_download_log+1,f
  7863  093F  293C               	goto	u5477
  7864  0940  0BA6               	decfsz	??_download_log+2,f
  7865  0941  293C               	goto	u5477
  7866  0942                     l4909:
  7867                           
  7868                           ;car_black_box_def.c: 582:         return 0x22;
  7869  0942  3022               	movlw	34
  7870  0943  2A87               	goto	l494
  7871  0944                     l4915:
  7872                           
  7873                           ;car_black_box_def.c: 585:     {;car_black_box_def.c: 586:         if(reset_flag == 0x15
      +                          )
  7874  0944  3015               	movlw	21
  7875  0945  0627               	xorwf	download_log@reset_flag,w
  7876  0946  1D03               	btfss	3,2
  7877  0947  2949               	goto	u4501
  7878  0948  294A               	goto	u4500
  7879  0949                     u4501:
  7880  0949  2976               	goto	l4927
  7881  094A                     u4500:
  7882  094A                     l4917:
  7883                           
  7884                           ;car_black_box_def.c: 587:         {;car_black_box_def.c: 588:             log_pos = 0;
  7885  094A  01C1               	clrf	download_log@log_pos
  7886  094B                     l4919:
  7887                           
  7888                           ;car_black_box_def.c: 589:             clcd_print("Downloaded-Open", (0x80 + 0));
  7889  094B  30AA               	movlw	low (STR_31| (0+32768))
  7890  094C  00A1               	movwf	clcd_print@str
  7891  094D  3090               	movlw	high (STR_31| (0+32768))
  7892  094E  00A2               	movwf	clcd_print@str+1
  7893  094F  3080               	movlw	128
  7894  0950  00A4               	movwf	??_download_log
  7895  0951  0824               	movf	??_download_log,w
  7896  0952  00A3               	movwf	clcd_print@addr
  7897  0953  160A  118A  22B1  120A  158A  	fcall	_clcd_print
  7898  0958                     l4921:
  7899                           
  7900                           ;car_black_box_def.c: 590:             clcd_print("Serial Terminal", (0xC0 + 0));
  7901  0958  309A               	movlw	low (STR_32| (0+32768))
  7902  0959  1283               	bcf	3,5	;RP0=0, select bank0
  7903  095A  1303               	bcf	3,6	;RP1=0, select bank0
  7904  095B  00A1               	movwf	clcd_print@str
  7905  095C  3090               	movlw	high (STR_32| (0+32768))
  7906  095D  00A2               	movwf	clcd_print@str+1
  7907  095E  30C0               	movlw	192
  7908  095F  00A4               	movwf	??_download_log
  7909  0960  0824               	movf	??_download_log,w
  7910  0961  00A3               	movwf	clcd_print@addr
  7911  0962  160A  118A  22B1  120A  158A  	fcall	_clcd_print
  7912  0967                     l4923:
  7913                           
  7914                           ;car_black_box_def.c: 591:             putchar('\n');
  7915  0967  300A               	movlw	10
  7916  0968  160A  158A  273E  120A  158A  	fcall	_putchar
  7917  096D                     l4925:
  7918                           
  7919                           ;car_black_box_def.c: 592:             puts("N TIME     EV SP\n");
  7920  096D  3013               	movlw	low (STR_33| (0+32768))
  7921  096E  00F5               	movwf	puts@s
  7922  096F  3090               	movlw	high (STR_33| (0+32768))
  7923  0970  00F6               	movwf	puts@s+1
  7924  0971  160A  118A  21D7  120A  158A  	fcall	_puts
  7925  0976                     l4927:
  7926                           
  7927                           ;car_black_box_def.c: 595:         if(log_pos < access)
  7928  0976  0879               	movf	_access,w
  7929  0977  1283               	bcf	3,5	;RP0=0, select bank0
  7930  0978  1303               	bcf	3,6	;RP1=0, select bank0
  7931  0979  0241               	subwf	download_log@log_pos,w
  7932  097A  1803               	skipnc
  7933  097B  297D               	goto	u4511
  7934  097C  297E               	goto	u4510
  7935  097D                     u4511:
  7936  097D  2942               	goto	l4909
  7937  097E                     u4510:
  7938  097E                     l4929:
  7939                           
  7940                           ;car_black_box_def.c: 596:         {;car_black_box_def.c: 597:             i = log_pos *
      +                           10 + 5;
  7941  097E  300A               	movlw	10
  7942  097F  00A4               	movwf	??_download_log
  7943  0980  0824               	movf	??_download_log,w
  7944  0981  00F4               	movwf	___bmul@multiplicand
  7945  0982  0841               	movf	download_log@log_pos,w
  7946  0983  160A  158A  2797  120A  158A  	fcall	___bmul
  7947  0988  3E05               	addlw	5
  7948  0989  1283               	bcf	3,5	;RP0=0, select bank0
  7949  098A  1303               	bcf	3,6	;RP1=0, select bank0
  7950  098B  00A5               	movwf	??_download_log+1
  7951  098C  0825               	movf	??_download_log+1,w
  7952  098D  00A8               	movwf	download_log@i
  7953                           
  7954                           ;car_black_box_def.c: 598:             putchar(log_pos + '0');
  7955  098E  0841               	movf	download_log@log_pos,w
  7956  098F  3E30               	addlw	48
  7957  0990  160A  158A  273E  120A  158A  	fcall	_putchar
  7958                           
  7959                           ;car_black_box_def.c: 599:             putchar(' ');
  7960  0995  3020               	movlw	32
  7961  0996  160A  158A  273E  120A  158A  	fcall	_putchar
  7962                           
  7963                           ;car_black_box_def.c: 600:             ch = read_EEPROM(i);
  7964  099B  1283               	bcf	3,5	;RP0=0, select bank0
  7965  099C  1303               	bcf	3,6	;RP1=0, select bank0
  7966  099D  0828               	movf	download_log@i,w
  7967  099E  160A  118A  234D  120A  158A  	fcall	_read_EEPROM
  7968  09A3  1283               	bcf	3,5	;RP0=0, select bank0
  7969  09A4  1303               	bcf	3,6	;RP1=0, select bank0
  7970  09A5  00A4               	movwf	??_download_log
  7971  09A6  0824               	movf	??_download_log,w
  7972  09A7  00A9               	movwf	download_log@ch
  7973                           
  7974                           ;car_black_box_def.c: 601:             putchar(ch);
  7975  09A8  0829               	movf	download_log@ch,w
  7976  09A9  160A  158A  273E  120A  158A  	fcall	_putchar
  7977                           
  7978                           ;car_black_box_def.c: 602:             ch = read_EEPROM(i+1);
  7979  09AE  1283               	bcf	3,5	;RP0=0, select bank0
  7980  09AF  1303               	bcf	3,6	;RP1=0, select bank0
  7981  09B0  0828               	movf	download_log@i,w
  7982  09B1  3E01               	addlw	1
  7983  09B2  160A  118A  234D  120A  158A  	fcall	_read_EEPROM
  7984  09B7  1283               	bcf	3,5	;RP0=0, select bank0
  7985  09B8  1303               	bcf	3,6	;RP1=0, select bank0
  7986  09B9  00A4               	movwf	??_download_log
  7987  09BA  0824               	movf	??_download_log,w
  7988  09BB  00A9               	movwf	download_log@ch
  7989                           
  7990                           ;car_black_box_def.c: 603:             putchar(ch);
  7991  09BC  0829               	movf	download_log@ch,w
  7992  09BD  160A  158A  273E  120A  158A  	fcall	_putchar
  7993                           
  7994                           ;car_black_box_def.c: 604:             putchar(':');
  7995  09C2  303A               	movlw	58
  7996  09C3  160A  158A  273E  120A  158A  	fcall	_putchar
  7997                           
  7998                           ;car_black_box_def.c: 605:             ch = read_EEPROM(i+2);
  7999  09C8  1283               	bcf	3,5	;RP0=0, select bank0
  8000  09C9  1303               	bcf	3,6	;RP1=0, select bank0
  8001  09CA  0828               	movf	download_log@i,w
  8002  09CB  3E02               	addlw	2
  8003  09CC  160A  118A  234D  120A  158A  	fcall	_read_EEPROM
  8004  09D1  1283               	bcf	3,5	;RP0=0, select bank0
  8005  09D2  1303               	bcf	3,6	;RP1=0, select bank0
  8006  09D3  00A4               	movwf	??_download_log
  8007  09D4  0824               	movf	??_download_log,w
  8008  09D5  00A9               	movwf	download_log@ch
  8009                           
  8010                           ;car_black_box_def.c: 606:             putchar(ch);
  8011  09D6  0829               	movf	download_log@ch,w
  8012  09D7  160A  158A  273E  120A  158A  	fcall	_putchar
  8013                           
  8014                           ;car_black_box_def.c: 607:             ch = read_EEPROM(i+3);
  8015  09DC  1283               	bcf	3,5	;RP0=0, select bank0
  8016  09DD  1303               	bcf	3,6	;RP1=0, select bank0
  8017  09DE  0828               	movf	download_log@i,w
  8018  09DF  3E03               	addlw	3
  8019  09E0  160A  118A  234D  120A  158A  	fcall	_read_EEPROM
  8020  09E5  1283               	bcf	3,5	;RP0=0, select bank0
  8021  09E6  1303               	bcf	3,6	;RP1=0, select bank0
  8022  09E7  00A4               	movwf	??_download_log
  8023  09E8  0824               	movf	??_download_log,w
  8024  09E9  00A9               	movwf	download_log@ch
  8025                           
  8026                           ;car_black_box_def.c: 608:             putchar(ch);
  8027  09EA  0829               	movf	download_log@ch,w
  8028  09EB  160A  158A  273E  120A  158A  	fcall	_putchar
  8029                           
  8030                           ;car_black_box_def.c: 609:             putchar(':');
  8031  09F0  303A               	movlw	58
  8032  09F1  160A  158A  273E  120A  158A  	fcall	_putchar
  8033                           
  8034                           ;car_black_box_def.c: 610:             ch = read_EEPROM(i+4);
  8035  09F6  1283               	bcf	3,5	;RP0=0, select bank0
  8036  09F7  1303               	bcf	3,6	;RP1=0, select bank0
  8037  09F8  0828               	movf	download_log@i,w
  8038  09F9  3E04               	addlw	4
  8039  09FA  160A  118A  234D  120A  158A  	fcall	_read_EEPROM
  8040  09FF  1283               	bcf	3,5	;RP0=0, select bank0
  8041  0A00  1303               	bcf	3,6	;RP1=0, select bank0
  8042  0A01  00A4               	movwf	??_download_log
  8043  0A02  0824               	movf	??_download_log,w
  8044  0A03  00A9               	movwf	download_log@ch
  8045                           
  8046                           ;car_black_box_def.c: 611:             putchar(ch);
  8047  0A04  0829               	movf	download_log@ch,w
  8048  0A05  160A  158A  273E  120A  158A  	fcall	_putchar
  8049                           
  8050                           ;car_black_box_def.c: 612:             ch = read_EEPROM(i+5);
  8051  0A0A  1283               	bcf	3,5	;RP0=0, select bank0
  8052  0A0B  1303               	bcf	3,6	;RP1=0, select bank0
  8053  0A0C  0828               	movf	download_log@i,w
  8054  0A0D  3E05               	addlw	5
  8055  0A0E  160A  118A  234D  120A  158A  	fcall	_read_EEPROM
  8056  0A13  1283               	bcf	3,5	;RP0=0, select bank0
  8057  0A14  1303               	bcf	3,6	;RP1=0, select bank0
  8058  0A15  00A4               	movwf	??_download_log
  8059  0A16  0824               	movf	??_download_log,w
  8060  0A17  00A9               	movwf	download_log@ch
  8061                           
  8062                           ;car_black_box_def.c: 613:             putchar(ch);
  8063  0A18  0829               	movf	download_log@ch,w
  8064  0A19  160A  158A  273E  120A  158A  	fcall	_putchar
  8065                           
  8066                           ;car_black_box_def.c: 614:             putchar(' ');
  8067  0A1E  3020               	movlw	32
  8068  0A1F  160A  158A  273E  120A  158A  	fcall	_putchar
  8069                           
  8070                           ;car_black_box_def.c: 615:             ch = read_EEPROM(i+6);
  8071  0A24  1283               	bcf	3,5	;RP0=0, select bank0
  8072  0A25  1303               	bcf	3,6	;RP1=0, select bank0
  8073  0A26  0828               	movf	download_log@i,w
  8074  0A27  3E06               	addlw	6
  8075  0A28  160A  118A  234D  120A  158A  	fcall	_read_EEPROM
  8076  0A2D  1283               	bcf	3,5	;RP0=0, select bank0
  8077  0A2E  1303               	bcf	3,6	;RP1=0, select bank0
  8078  0A2F  00A4               	movwf	??_download_log
  8079  0A30  0824               	movf	??_download_log,w
  8080  0A31  00A9               	movwf	download_log@ch
  8081                           
  8082                           ;car_black_box_def.c: 616:             putchar(ch);
  8083  0A32  0829               	movf	download_log@ch,w
  8084  0A33  160A  158A  273E  120A  158A  	fcall	_putchar
  8085                           
  8086                           ;car_black_box_def.c: 617:             ch = read_EEPROM(i+7);
  8087  0A38  1283               	bcf	3,5	;RP0=0, select bank0
  8088  0A39  1303               	bcf	3,6	;RP1=0, select bank0
  8089  0A3A  0828               	movf	download_log@i,w
  8090  0A3B  3E07               	addlw	7
  8091  0A3C  160A  118A  234D  120A  158A  	fcall	_read_EEPROM
  8092  0A41  1283               	bcf	3,5	;RP0=0, select bank0
  8093  0A42  1303               	bcf	3,6	;RP1=0, select bank0
  8094  0A43  00A4               	movwf	??_download_log
  8095  0A44  0824               	movf	??_download_log,w
  8096  0A45  00A9               	movwf	download_log@ch
  8097                           
  8098                           ;car_black_box_def.c: 618:             putchar(ch);
  8099  0A46  0829               	movf	download_log@ch,w
  8100  0A47  160A  158A  273E  120A  158A  	fcall	_putchar
  8101                           
  8102                           ;car_black_box_def.c: 619:             putchar(' ');
  8103  0A4C  3020               	movlw	32
  8104  0A4D  160A  158A  273E  120A  158A  	fcall	_putchar
  8105                           
  8106                           ;car_black_box_def.c: 620:             ch = read_EEPROM(i+8);
  8107  0A52  1283               	bcf	3,5	;RP0=0, select bank0
  8108  0A53  1303               	bcf	3,6	;RP1=0, select bank0
  8109  0A54  0828               	movf	download_log@i,w
  8110  0A55  3E08               	addlw	8
  8111  0A56  160A  118A  234D  120A  158A  	fcall	_read_EEPROM
  8112  0A5B  1283               	bcf	3,5	;RP0=0, select bank0
  8113  0A5C  1303               	bcf	3,6	;RP1=0, select bank0
  8114  0A5D  00A4               	movwf	??_download_log
  8115  0A5E  0824               	movf	??_download_log,w
  8116  0A5F  00A9               	movwf	download_log@ch
  8117                           
  8118                           ;car_black_box_def.c: 621:             putchar(ch);
  8119  0A60  0829               	movf	download_log@ch,w
  8120  0A61  160A  158A  273E  120A  158A  	fcall	_putchar
  8121                           
  8122                           ;car_black_box_def.c: 622:             ch = read_EEPROM(i+9);
  8123  0A66  1283               	bcf	3,5	;RP0=0, select bank0
  8124  0A67  1303               	bcf	3,6	;RP1=0, select bank0
  8125  0A68  0828               	movf	download_log@i,w
  8126  0A69  3E09               	addlw	9
  8127  0A6A  160A  118A  234D  120A  158A  	fcall	_read_EEPROM
  8128  0A6F  1283               	bcf	3,5	;RP0=0, select bank0
  8129  0A70  1303               	bcf	3,6	;RP1=0, select bank0
  8130  0A71  00A4               	movwf	??_download_log
  8131  0A72  0824               	movf	??_download_log,w
  8132  0A73  00A9               	movwf	download_log@ch
  8133                           
  8134                           ;car_black_box_def.c: 623:             putchar(ch);
  8135  0A74  0829               	movf	download_log@ch,w
  8136  0A75  160A  158A  273E  120A  158A  	fcall	_putchar
  8137                           
  8138                           ;car_black_box_def.c: 624:             putchar('\n');
  8139  0A7A  300A               	movlw	10
  8140  0A7B  160A  158A  273E  120A  158A  	fcall	_putchar
  8141  0A80                     l4931:
  8142                           
  8143                           ;car_black_box_def.c: 625:             log_pos++;
  8144  0A80  3001               	movlw	1
  8145  0A81  1283               	bcf	3,5	;RP0=0, select bank0
  8146  0A82  1303               	bcf	3,6	;RP1=0, select bank0
  8147  0A83  00A4               	movwf	??_download_log
  8148  0A84  0824               	movf	??_download_log,w
  8149  0A85  07C1               	addwf	download_log@log_pos,f
  8150  0A86                     l4937:	
  8151                           ;car_black_box_def.c: 626:         }
  8152                           
  8153                           
  8154                           ;car_black_box_def.c: 630:     return 0x30;
  8155  0A86  3030               	movlw	48
  8156  0A87                     l494:
  8157  0A87  0008               	return
  8158  0A88                     __end_of_download_log:
  8159                           
  8160                           	psect	text24
  8161  134D                     __ptext24:	
  8162 ;; *************** function _read_EEPROM *****************
  8163 ;; Defined at:
  8164 ;;		line 22 in file "EEPROM.c"
  8165 ;; Parameters:    Size  Location     Type
  8166 ;;  addr            1    wreg     unsigned char 
  8167 ;; Auto vars:     Size  Location     Type
  8168 ;;  addr            1    1[BANK0 ] unsigned char 
  8169 ;;  data            1    2[BANK0 ] unsigned char 
  8170 ;; Return value:  Size  Location     Type
  8171 ;;                  1    wreg      unsigned char 
  8172 ;; Registers used:
  8173 ;;		wreg, status,2, status,0, pclath, cstack
  8174 ;; Tracked objects:
  8175 ;;		On entry : 0/0
  8176 ;;		On exit  : 0/0
  8177 ;;		Unchanged: 0/0
  8178 ;; Data sizes:     COMMON   BANK0   BANK1   BANK3   BANK2
  8179 ;;      Params:         0       0       0       0       0
  8180 ;;      Locals:         0       2       0       0       0
  8181 ;;      Temps:          0       1       0       0       0
  8182 ;;      Totals:         0       3       0       0       0
  8183 ;;Total ram usage:        3 bytes
  8184 ;; Hardware stack levels used: 1
  8185 ;; Hardware stack levels required when called: 4
  8186 ;; This function calls:
  8187 ;;		_i2c_read
  8188 ;;		_i2c_rep_start
  8189 ;;		_i2c_start
  8190 ;;		_i2c_stop
  8191 ;;		_i2c_write
  8192 ;; This function is called by:
  8193 ;;		_login
  8194 ;;		_view_log
  8195 ;;		_download_log
  8196 ;; This function uses a non-reentrant model
  8197 ;;
  8198                           
  8199                           
  8200                           ;psect for function _read_EEPROM
  8201  134D                     _read_EEPROM:
  8202                           
  8203                           ;incstack = 0
  8204                           ; Regs used in _read_EEPROM: [wreg+status,2+status,0+pclath+cstack]
  8205                           ;read_EEPROM@addr stored from wreg
  8206  134D  1283               	bcf	3,5	;RP0=0, select bank0
  8207  134E  1303               	bcf	3,6	;RP1=0, select bank0
  8208  134F  00A1               	movwf	read_EEPROM@addr
  8209  1350                     l4257:
  8210                           
  8211                           ;EEPROM.c: 22: char read_EEPROM(unsigned char addr);EEPROM.c: 23: {;EEPROM.c: 25:     un
      +                          signed char data;;EEPROM.c: 28:     i2c_start();
  8212  1350  160A  158A  270C  160A  118A  	fcall	_i2c_start
  8213                           
  8214                           ;EEPROM.c: 30:     i2c_write(0b10100000);
  8215  1355  30A0               	movlw	160
  8216  1356  160A  158A  2728  160A  118A  	fcall	_i2c_write
  8217                           
  8218                           ;EEPROM.c: 32:     i2c_write(addr);
  8219  135B  1283               	bcf	3,5	;RP0=0, select bank0
  8220  135C  1303               	bcf	3,6	;RP1=0, select bank0
  8221  135D  0821               	movf	read_EEPROM@addr,w
  8222  135E  160A  158A  2728  160A  118A  	fcall	_i2c_write
  8223                           
  8224                           ;EEPROM.c: 34:     i2c_rep_start();
  8225  1363  160A  158A  2733  160A  118A  	fcall	_i2c_rep_start
  8226                           
  8227                           ;EEPROM.c: 36:     i2c_write(0b10100001);
  8228  1368  30A1               	movlw	161
  8229  1369  160A  158A  2728  160A  118A  	fcall	_i2c_write
  8230                           
  8231                           ;EEPROM.c: 39:     data = i2c_read(0);
  8232  136E  3000               	movlw	0
  8233  136F  160A  118A  21B4  160A  118A  	fcall	_i2c_read
  8234  1374  1283               	bcf	3,5	;RP0=0, select bank0
  8235  1375  1303               	bcf	3,6	;RP1=0, select bank0
  8236  1376  00A0               	movwf	??_read_EEPROM
  8237  1377  0820               	movf	??_read_EEPROM,w
  8238  1378  00A2               	movwf	read_EEPROM@data
  8239                           
  8240                           ;EEPROM.c: 41:     i2c_stop();
  8241  1379  160A  158A  2715  160A  118A  	fcall	_i2c_stop
  8242  137E                     l4259:
  8243                           
  8244                           ;EEPROM.c: 43:     return data;
  8245  137E  1283               	bcf	3,5	;RP0=0, select bank0
  8246  137F  1303               	bcf	3,6	;RP1=0, select bank0
  8247  1380  0822               	movf	read_EEPROM@data,w
  8248  1381                     l266:
  8249  1381  0008               	return
  8250  1382                     __end_of_read_EEPROM:
  8251                           
  8252                           	psect	text25
  8253  11D7                     __ptext25:	
  8254 ;; *************** function _puts *****************
  8255 ;; Defined at:
  8256 ;;		line 46 in file "uart.c"
  8257 ;; Parameters:    Size  Location     Type
  8258 ;;  s               2    5[COMMON] PTR const unsigned char 
  8259 ;;		 -> STR_33(18), 
  8260 ;; Auto vars:     Size  Location     Type
  8261 ;;		None
  8262 ;; Return value:  Size  Location     Type
  8263 ;;                  1    wreg      void 
  8264 ;; Registers used:
  8265 ;;		wreg, fsr0l, fsr0h, status,2, status,0, btemp+1, pclath, cstack
  8266 ;; Tracked objects:
  8267 ;;		On entry : 0/0
  8268 ;;		On exit  : 0/0
  8269 ;;		Unchanged: 0/0
  8270 ;; Data sizes:     COMMON   BANK0   BANK1   BANK3   BANK2
  8271 ;;      Params:         2       0       0       0       0
  8272 ;;      Locals:         0       0       0       0       0
  8273 ;;      Temps:          0       0       0       0       0
  8274 ;;      Totals:         2       0       0       0       0
  8275 ;;Total ram usage:        2 bytes
  8276 ;; Hardware stack levels used: 1
  8277 ;; Hardware stack levels required when called: 2
  8278 ;; This function calls:
  8279 ;;		_putchar
  8280 ;; This function is called by:
  8281 ;;		_download_log
  8282 ;; This function uses a non-reentrant model
  8283 ;;
  8284                           
  8285                           
  8286                           ;psect for function _puts
  8287  11D7                     _puts:
  8288  11D7                     l4341:	
  8289                           ;incstack = 0
  8290                           ; Regs used in _puts: [wreg-fsr0h+status,2+status,0+btemp+1+pclath+cstack]
  8291                           
  8292                           
  8293                           ;uart.c: 46: void puts(const char *s);uart.c: 47: {;uart.c: 48:     while (*s)
  8294  11D7  29EC               	goto	l4347
  8295  11D8                     l4343:
  8296                           
  8297                           ;uart.c: 49:     {;uart.c: 50:         putchar(*s++);
  8298  11D8  0876               	movf	puts@s+1,w
  8299  11D9  00FF               	movwf	btemp+1
  8300  11DA  0875               	movf	puts@s,w
  8301  11DB  0084               	movwf	4
  8302  11DC  160A  158A  2000  160A  118A  	fcall	stringtab
  8303  11E1  160A  158A  273E  160A  118A  	fcall	_putchar
  8304  11E6                     l4345:
  8305  11E6  3001               	movlw	1
  8306  11E7  07F5               	addwf	puts@s,f
  8307  11E8  1803               	skipnc
  8308  11E9  0AF6               	incf	puts@s+1,f
  8309  11EA  3000               	movlw	0
  8310  11EB  07F6               	addwf	puts@s+1,f
  8311  11EC                     l4347:
  8312                           
  8313                           ;uart.c: 48:     while (*s)
  8314  11EC  0876               	movf	puts@s+1,w
  8315  11ED  1283               	bcf	3,5	;RP0=0, select bank0
  8316  11EE  1303               	bcf	3,6	;RP1=0, select bank0
  8317  11EF  00FF               	movwf	btemp+1
  8318  11F0  0875               	movf	puts@s,w
  8319  11F1  0084               	movwf	4
  8320  11F2  160A  158A  2000  160A  118A  	fcall	stringtab
  8321  11F7  3A00               	xorlw	0
  8322  11F8  1D03               	skipz
  8323  11F9  29FB               	goto	u3701
  8324  11FA  29FC               	goto	u3700
  8325  11FB                     u3701:
  8326  11FB  29D8               	goto	l4343
  8327  11FC                     u3700:
  8328  11FC                     l570:
  8329  11FC  0008               	return
  8330  11FD                     __end_of_puts:
  8331                           
  8332                           	psect	text26
  8333  1F3E                     __ptext26:	
  8334 ;; *************** function _putchar *****************
  8335 ;; Defined at:
  8336 ;;		line 31 in file "uart.c"
  8337 ;; Parameters:    Size  Location     Type
  8338 ;;  data            1    wreg     unsigned char 
  8339 ;; Auto vars:     Size  Location     Type
  8340 ;;  data            1    4[COMMON] unsigned char 
  8341 ;; Return value:  Size  Location     Type
  8342 ;;                  1    wreg      void 
  8343 ;; Registers used:
  8344 ;;		wreg
  8345 ;; Tracked objects:
  8346 ;;		On entry : 0/0
  8347 ;;		On exit  : 0/0
  8348 ;;		Unchanged: 0/0
  8349 ;; Data sizes:     COMMON   BANK0   BANK1   BANK3   BANK2
  8350 ;;      Params:         0       0       0       0       0
  8351 ;;      Locals:         1       0       0       0       0
  8352 ;;      Temps:          0       0       0       0       0
  8353 ;;      Totals:         1       0       0       0       0
  8354 ;;Total ram usage:        1 bytes
  8355 ;; Hardware stack levels used: 1
  8356 ;; Hardware stack levels required when called: 1
  8357 ;; This function calls:
  8358 ;;		Nothing
  8359 ;; This function is called by:
  8360 ;;		_download_log
  8361 ;;		_puts
  8362 ;; This function uses a non-reentrant model
  8363 ;;
  8364                           
  8365                           
  8366                           ;psect for function _putchar
  8367  1F3E                     _putchar:
  8368                           
  8369                           ;incstack = 0
  8370                           ; Regs used in _putchar: [wreg]
  8371                           ;putchar@data stored from wreg
  8372  1F3E  00F4               	movwf	putchar@data
  8373  1F3F                     l4171:
  8374                           
  8375                           ;uart.c: 31: void putchar(unsigned char data);uart.c: 32: {;uart.c: 34:     TXREG = data
      +                          ;
  8376  1F3F  0874               	movf	putchar@data,w
  8377  1F40  1283               	bcf	3,5	;RP0=0, select bank0
  8378  1F41  1303               	bcf	3,6	;RP1=0, select bank0
  8379  1F42  0099               	movwf	25	;volatile
  8380  1F43                     l562:	
  8381                           ;uart.c: 40:     } while (TXIF != 1);
  8382                           
  8383  1F43  1E0C               	btfss	12,4	;volatile
  8384  1F44  2F46               	goto	u3461
  8385  1F45  2F47               	goto	u3460
  8386  1F46                     u3461:
  8387  1F46  2F43               	goto	l562
  8388  1F47                     u3460:
  8389  1F47                     l563:
  8390                           
  8391                           ;uart.c: 43:     TXIF = 0;
  8392  1F47  120C               	bcf	12,4	;volatile
  8393  1F48                     l564:
  8394  1F48  0008               	return
  8395  1F49                     __end_of_putchar:
  8396                           
  8397                           	psect	text27
  8398  1F97                     __ptext27:	
  8399 ;; *************** function ___bmul *****************
  8400 ;; Defined at:
  8401 ;;		line 4 in file "C:\Program Files\Microchip\xc8\v2.32\pic\sources\c90\common\Umul8.c"
  8402 ;; Parameters:    Size  Location     Type
  8403 ;;  multiplier      1    wreg     unsigned char 
  8404 ;;  multiplicand    1    4[COMMON] unsigned char 
  8405 ;; Auto vars:     Size  Location     Type
  8406 ;;  multiplier      1    1[BANK0 ] unsigned char 
  8407 ;;  product         1    0[BANK0 ] unsigned char 
  8408 ;; Return value:  Size  Location     Type
  8409 ;;                  1    wreg      unsigned char 
  8410 ;; Registers used:
  8411 ;;		wreg, status,2, status,0
  8412 ;; Tracked objects:
  8413 ;;		On entry : 0/0
  8414 ;;		On exit  : 0/0
  8415 ;;		Unchanged: 0/0
  8416 ;; Data sizes:     COMMON   BANK0   BANK1   BANK3   BANK2
  8417 ;;      Params:         1       0       0       0       0
  8418 ;;      Locals:         0       2       0       0       0
  8419 ;;      Temps:          1       0       0       0       0
  8420 ;;      Totals:         2       2       0       0       0
  8421 ;;Total ram usage:        4 bytes
  8422 ;; Hardware stack levels used: 1
  8423 ;; Hardware stack levels required when called: 1
  8424 ;; This function calls:
  8425 ;;		Nothing
  8426 ;; This function is called by:
  8427 ;;		_log_car_event
  8428 ;;		_view_log
  8429 ;;		_set_time
  8430 ;;		_download_log
  8431 ;; This function uses a non-reentrant model
  8432 ;;
  8433                           
  8434                           
  8435                           ;psect for function ___bmul
  8436  1F97                     ___bmul:
  8437                           
  8438                           ;incstack = 0
  8439                           ; Regs used in ___bmul: [wreg+status,2+status,0]
  8440                           ;___bmul@multiplier stored from wreg
  8441  1F97  1283               	bcf	3,5	;RP0=0, select bank0
  8442  1F98  1303               	bcf	3,6	;RP1=0, select bank0
  8443  1F99  00A1               	movwf	___bmul@multiplier
  8444  1F9A                     l4173:
  8445  1F9A  01A0               	clrf	___bmul@product
  8446  1F9B                     l4175:
  8447  1F9B  1C21               	btfss	___bmul@multiplier,0
  8448  1F9C  2F9E               	goto	u3471
  8449  1F9D  2F9F               	goto	u3470
  8450  1F9E                     u3471:
  8451  1F9E  2FA3               	goto	l4179
  8452  1F9F                     u3470:
  8453  1F9F                     l4177:
  8454  1F9F  0874               	movf	___bmul@multiplicand,w
  8455  1FA0  00F5               	movwf	??___bmul
  8456  1FA1  0875               	movf	??___bmul,w
  8457  1FA2  07A0               	addwf	___bmul@product,f
  8458  1FA3                     l4179:
  8459  1FA3  1003               	clrc
  8460  1FA4  0DF4               	rlf	___bmul@multiplicand,f
  8461  1FA5                     l4181:
  8462  1FA5  1003               	clrc
  8463  1FA6  0CA1               	rrf	___bmul@multiplier,f
  8464  1FA7  0821               	movf	___bmul@multiplier,w
  8465  1FA8  1D03               	btfss	3,2
  8466  1FA9  2FAB               	goto	u3481
  8467  1FAA  2FAC               	goto	u3480
  8468  1FAB                     u3481:
  8469  1FAB  2F9B               	goto	l4175
  8470  1FAC                     u3480:
  8471  1FAC                     l4183:
  8472  1FAC  0820               	movf	___bmul@product,w
  8473  1FAD                     l682:
  8474  1FAD  0008               	return
  8475  1FAE                     __end_of___bmul:
  8476                           
  8477                           	psect	text28
  8478  1605                     __ptext28:	
  8479 ;; *************** function _display_dash_screen *****************
  8480 ;; Defined at:
  8481 ;;		line 61 in file "car_black_box_def.c"
  8482 ;; Parameters:    Size  Location     Type
  8483 ;;  event           1    wreg     PTR unsigned char 
  8484 ;;		 -> main@event(3), 
  8485 ;;  speed           1   18[BANK0 ] unsigned char 
  8486 ;; Auto vars:     Size  Location     Type
  8487 ;;  event           1   22[BANK0 ] PTR unsigned char 
  8488 ;;		 -> main@event(3), 
  8489 ;; Return value:  Size  Location     Type
  8490 ;;                  1    wreg      void 
  8491 ;; Registers used:
  8492 ;;		wreg, fsr0l, fsr0h, status,2, status,0, btemp+1, pclath, cstack
  8493 ;; Tracked objects:
  8494 ;;		On entry : 0/0
  8495 ;;		On exit  : 0/0
  8496 ;;		Unchanged: 0/0
  8497 ;; Data sizes:     COMMON   BANK0   BANK1   BANK3   BANK2
  8498 ;;      Params:         0       1       0       0       0
  8499 ;;      Locals:         0       1       0       0       0
  8500 ;;      Temps:          0       3       0       0       0
  8501 ;;      Totals:         0       5       0       0       0
  8502 ;;Total ram usage:        5 bytes
  8503 ;; Hardware stack levels used: 1
  8504 ;; Hardware stack levels required when called: 7
  8505 ;; This function calls:
  8506 ;;		___awdiv
  8507 ;;		___awmod
  8508 ;;		_clcd_print
  8509 ;;		_clcd_putch
  8510 ;;		_display_time
  8511 ;; This function is called by:
  8512 ;;		_main
  8513 ;; This function uses a non-reentrant model
  8514 ;;
  8515                           
  8516                           
  8517                           ;psect for function _display_dash_screen
  8518  1605                     _display_dash_screen:
  8519                           
  8520                           ;incstack = 0
  8521                           ; Regs used in _display_dash_screen: [wreg-fsr0h+status,2+status,0+btemp+1+pclath+cstack
      +                          ]
  8522                           ;display_dash_screen@event stored from wreg
  8523  1605  1283               	bcf	3,5	;RP0=0, select bank0
  8524  1606  1303               	bcf	3,6	;RP1=0, select bank0
  8525  1607  00B6               	movwf	display_dash_screen@event
  8526  1608                     l4507:
  8527                           
  8528                           ;car_black_box_def.c: 61: void display_dash_screen(char event[], unsigned char speed);ca
      +                          r_black_box_def.c: 62: {;car_black_box_def.c: 63:     clcd_print("  TIME     EV SP", (0x
      +                          80 + 0));
  8529  1608  3036               	movlw	low (STR_16| (0+32768))
  8530  1609  00A1               	movwf	clcd_print@str
  8531  160A  3090               	movlw	high (STR_16| (0+32768))
  8532  160B  00A2               	movwf	clcd_print@str+1
  8533  160C  3080               	movlw	128
  8534  160D  00B3               	movwf	??_display_dash_screen
  8535  160E  0833               	movf	??_display_dash_screen,w
  8536  160F  00A3               	movwf	clcd_print@addr
  8537  1610  160A  118A  22B1  160A  118A  	fcall	_clcd_print
  8538  1615                     l4509:
  8539                           
  8540                           ;car_black_box_def.c: 65:     display_time();
  8541  1615  160A  118A  2739  160A  118A  	fcall	_display_time
  8542  161A                     l4511:
  8543                           
  8544                           ;car_black_box_def.c: 68:     clcd_print(event, (0xC0 + 11));
  8545  161A  1283               	bcf	3,5	;RP0=0, select bank0
  8546  161B  1303               	bcf	3,6	;RP1=0, select bank0
  8547  161C  0836               	movf	display_dash_screen@event,w
  8548  161D  00A1               	movwf	clcd_print@str
  8549  161E  3001               	movlw	1
  8550  161F  00A2               	movwf	clcd_print@str+1
  8551  1620  30CB               	movlw	203
  8552  1621  00B3               	movwf	??_display_dash_screen
  8553  1622  0833               	movf	??_display_dash_screen,w
  8554  1623  00A3               	movwf	clcd_print@addr
  8555  1624  160A  118A  22B1  160A  118A  	fcall	_clcd_print
  8556                           
  8557                           ;car_black_box_def.c: 70:     clcd_putch(speed/10 + '0', (0xC0 + 14));
  8558  1629  30CE               	movlw	206
  8559  162A  1283               	bcf	3,5	;RP0=0, select bank0
  8560  162B  1303               	bcf	3,6	;RP1=0, select bank0
  8561  162C  00B3               	movwf	??_display_dash_screen
  8562  162D  0833               	movf	??_display_dash_screen,w
  8563  162E  00AE               	movwf	clcd_putch@addr
  8564  162F  300A               	movlw	10
  8565  1630  00A0               	movwf	___awdiv@divisor
  8566  1631  3000               	movlw	0
  8567  1632  00A1               	movwf	___awdiv@divisor+1
  8568  1633  0832               	movf	display_dash_screen@speed,w
  8569  1634  00B4               	movwf	??_display_dash_screen+1
  8570  1635  01B5               	clrf	??_display_dash_screen+2
  8571  1636  0834               	movf	??_display_dash_screen+1,w
  8572  1637  00A2               	movwf	___awdiv@dividend
  8573  1638  0835               	movf	??_display_dash_screen+2,w
  8574  1639  00A3               	movwf	___awdiv@dividend+1
  8575  163A  160A  118A  26D0  160A  118A  	fcall	___awdiv
  8576  163F  1283               	bcf	3,5	;RP0=0, select bank0
  8577  1640  1303               	bcf	3,6	;RP1=0, select bank0
  8578  1641  0820               	movf	?___awdiv,w
  8579  1642  3E30               	addlw	48
  8580  1643  160A  158A  2782  160A  118A  	fcall	_clcd_putch
  8581                           
  8582                           ;car_black_box_def.c: 71:     clcd_putch(speed%10 + '0', (0xC0 + 15));
  8583  1648  30CF               	movlw	207
  8584  1649  1283               	bcf	3,5	;RP0=0, select bank0
  8585  164A  1303               	bcf	3,6	;RP1=0, select bank0
  8586  164B  00B3               	movwf	??_display_dash_screen
  8587  164C  0833               	movf	??_display_dash_screen,w
  8588  164D  00AE               	movwf	clcd_putch@addr
  8589  164E  300A               	movlw	10
  8590  164F  00A8               	movwf	___awmod@divisor
  8591  1650  3000               	movlw	0
  8592  1651  00A9               	movwf	___awmod@divisor+1
  8593  1652  0832               	movf	display_dash_screen@speed,w
  8594  1653  00B4               	movwf	??_display_dash_screen+1
  8595  1654  01B5               	clrf	??_display_dash_screen+2
  8596  1655  0834               	movf	??_display_dash_screen+1,w
  8597  1656  00AA               	movwf	___awmod@dividend
  8598  1657  0835               	movf	??_display_dash_screen+2,w
  8599  1658  00AB               	movwf	___awmod@dividend+1
  8600  1659  160A  118A  254C  160A  118A  	fcall	___awmod
  8601  165E  1283               	bcf	3,5	;RP0=0, select bank0
  8602  165F  1303               	bcf	3,6	;RP1=0, select bank0
  8603  1660  0828               	movf	?___awmod,w
  8604  1661  3E30               	addlw	48
  8605  1662  160A  158A  2782  160A  118A  	fcall	_clcd_putch
  8606  1667                     l355:
  8607  1667  0008               	return
  8608  1668                     __end_of_display_dash_screen:
  8609                           
  8610                           	psect	text29
  8611  1739                     __ptext29:	
  8612 ;; *************** function _display_time *****************
  8613 ;; Defined at:
  8614 ;;		line 31 in file "car_black_box_def.c"
  8615 ;; Parameters:    Size  Location     Type
  8616 ;;		None
  8617 ;; Auto vars:     Size  Location     Type
  8618 ;;		None
  8619 ;; Return value:  Size  Location     Type
  8620 ;;                  1    wreg      void 
  8621 ;; Registers used:
  8622 ;;		wreg, status,2, status,0, pclath, cstack
  8623 ;; Tracked objects:
  8624 ;;		On entry : 0/0
  8625 ;;		On exit  : 0/0
  8626 ;;		Unchanged: 0/0
  8627 ;; Data sizes:     COMMON   BANK0   BANK1   BANK3   BANK2
  8628 ;;      Params:         0       0       0       0       0
  8629 ;;      Locals:         0       0       0       0       0
  8630 ;;      Temps:          0       2       0       0       0
  8631 ;;      Totals:         0       2       0       0       0
  8632 ;;Total ram usage:        2 bytes
  8633 ;; Hardware stack levels used: 1
  8634 ;; Hardware stack levels required when called: 6
  8635 ;; This function calls:
  8636 ;;		_clcd_putch
  8637 ;;		_get_time
  8638 ;; This function is called by:
  8639 ;;		_display_dash_screen
  8640 ;; This function uses a non-reentrant model
  8641 ;;
  8642                           
  8643                           
  8644                           ;psect for function _display_time
  8645  1739                     _display_time:
  8646  1739                     l4263:	
  8647                           ;incstack = 0
  8648                           ; Regs used in _display_time: [wreg+status,2+status,0+pclath+cstack]
  8649                           
  8650                           
  8651                           ;car_black_box_def.c: 33:     get_time();
  8652  1739  160A  118A  2192  160A  118A  	fcall	_get_time
  8653  173E                     l4265:
  8654                           
  8655                           ;car_black_box_def.c: 37:     time[0] = ((clock_reg[0] >> 4) & 0x03) + '0';
  8656  173E  1283               	bcf	3,5	;RP0=0, select bank0
  8657  173F  1303               	bcf	3,6	;RP1=0, select bank0
  8658  1740  083E               	movf	_clock_reg,w
  8659  1741  00B0               	movwf	??_display_time
  8660  1742  3004               	movlw	4
  8661  1743                     u3595:
  8662  1743  1003               	clrc
  8663  1744  0CB0               	rrf	??_display_time,f
  8664  1745  3EFF               	addlw	-1
  8665  1746  1D03               	skipz
  8666  1747  2F43               	goto	u3595
  8667  1748  0830               	movf	??_display_time,w
  8668  1749  3903               	andlw	3
  8669  174A  3E30               	addlw	48
  8670  174B  00B1               	movwf	??_display_time+1
  8671  174C  0831               	movf	??_display_time+1,w
  8672  174D  1683               	bsf	3,5	;RP0=1, select bank1
  8673  174E  1303               	bcf	3,6	;RP1=0, select bank1
  8674  174F  00B6               	movwf	_time^(0+128)
  8675  1750                     l4267:
  8676                           
  8677                           ;car_black_box_def.c: 38:     time[1] = (clock_reg[0] & 0x0F) + '0';
  8678  1750  1283               	bcf	3,5	;RP0=0, select bank0
  8679  1751  1303               	bcf	3,6	;RP1=0, select bank0
  8680  1752  083E               	movf	_clock_reg,w
  8681  1753  390F               	andlw	15
  8682  1754  3E30               	addlw	48
  8683  1755  00B0               	movwf	??_display_time
  8684  1756  0830               	movf	??_display_time,w
  8685  1757  1683               	bsf	3,5	;RP0=1, select bank1
  8686  1758  1303               	bcf	3,6	;RP1=0, select bank1
  8687  1759  00B7               	movwf	(_time^(0+128)+1)
  8688  175A                     l4269:
  8689                           
  8690                           ;car_black_box_def.c: 41:     time[2] = ((clock_reg[1] >> 4) & 0x07) + '0';
  8691  175A  1283               	bcf	3,5	;RP0=0, select bank0
  8692  175B  1303               	bcf	3,6	;RP1=0, select bank0
  8693  175C  083F               	movf	_clock_reg+1,w
  8694  175D  00B0               	movwf	??_display_time
  8695  175E  3004               	movlw	4
  8696  175F                     u3605:
  8697  175F  1003               	clrc
  8698  1760  0CB0               	rrf	??_display_time,f
  8699  1761  3EFF               	addlw	-1
  8700  1762  1D03               	skipz
  8701  1763  2F5F               	goto	u3605
  8702  1764  0830               	movf	??_display_time,w
  8703  1765  3907               	andlw	7
  8704  1766  3E30               	addlw	48
  8705  1767  00B1               	movwf	??_display_time+1
  8706  1768  0831               	movf	??_display_time+1,w
  8707  1769  1683               	bsf	3,5	;RP0=1, select bank1
  8708  176A  1303               	bcf	3,6	;RP1=0, select bank1
  8709  176B  00B8               	movwf	(_time^(0+128)+2)
  8710  176C                     l4271:
  8711                           
  8712                           ;car_black_box_def.c: 42:     time[3] = (clock_reg[1] & 0x0F) + '0';
  8713  176C  1283               	bcf	3,5	;RP0=0, select bank0
  8714  176D  1303               	bcf	3,6	;RP1=0, select bank0
  8715  176E  083F               	movf	_clock_reg+1,w
  8716  176F  390F               	andlw	15
  8717  1770  3E30               	addlw	48
  8718  1771  00B0               	movwf	??_display_time
  8719  1772  0830               	movf	??_display_time,w
  8720  1773  1683               	bsf	3,5	;RP0=1, select bank1
  8721  1774  1303               	bcf	3,6	;RP1=0, select bank1
  8722  1775  00B9               	movwf	(_time^(0+128)+3)
  8723  1776                     l4273:
  8724                           
  8725                           ;car_black_box_def.c: 45:     time[4] = ((clock_reg[2] >> 4) & 0x07) + '0';
  8726  1776  1283               	bcf	3,5	;RP0=0, select bank0
  8727  1777  1303               	bcf	3,6	;RP1=0, select bank0
  8728  1778  0840               	movf	_clock_reg+2,w
  8729  1779  00B0               	movwf	??_display_time
  8730  177A  3004               	movlw	4
  8731  177B                     u3615:
  8732  177B  1003               	clrc
  8733  177C  0CB0               	rrf	??_display_time,f
  8734  177D  3EFF               	addlw	-1
  8735  177E  1D03               	skipz
  8736  177F  2F7B               	goto	u3615
  8737  1780  0830               	movf	??_display_time,w
  8738  1781  3907               	andlw	7
  8739  1782  3E30               	addlw	48
  8740  1783  00B1               	movwf	??_display_time+1
  8741  1784  0831               	movf	??_display_time+1,w
  8742  1785  1683               	bsf	3,5	;RP0=1, select bank1
  8743  1786  1303               	bcf	3,6	;RP1=0, select bank1
  8744  1787  00BA               	movwf	(_time^(0+128)+4)
  8745  1788                     l4275:
  8746                           
  8747                           ;car_black_box_def.c: 46:     time[5] = (clock_reg[2] & 0x0F) + '0';
  8748  1788  1283               	bcf	3,5	;RP0=0, select bank0
  8749  1789  1303               	bcf	3,6	;RP1=0, select bank0
  8750  178A  0840               	movf	_clock_reg+2,w
  8751  178B  390F               	andlw	15
  8752  178C  3E30               	addlw	48
  8753  178D  00B0               	movwf	??_display_time
  8754  178E  0830               	movf	??_display_time,w
  8755  178F  1683               	bsf	3,5	;RP0=1, select bank1
  8756  1790  1303               	bcf	3,6	;RP1=0, select bank1
  8757  1791  00BB               	movwf	(_time^(0+128)+5)
  8758  1792                     l4277:
  8759                           
  8760                           ;car_black_box_def.c: 47:     time[6] = '\0';
  8761  1792  01BC               	clrf	(_time^(0+128)+6)
  8762  1793                     l4279:
  8763                           
  8764                           ;car_black_box_def.c: 50:     clcd_putch(time[0], (0xC0 + 2));
  8765  1793  30C2               	movlw	194
  8766  1794  1283               	bcf	3,5	;RP0=0, select bank0
  8767  1795  1303               	bcf	3,6	;RP1=0, select bank0
  8768  1796  00B0               	movwf	??_display_time
  8769  1797  0830               	movf	??_display_time,w
  8770  1798  00AE               	movwf	clcd_putch@addr
  8771  1799  1683               	bsf	3,5	;RP0=1, select bank1
  8772  179A  1303               	bcf	3,6	;RP1=0, select bank1
  8773  179B  0836               	movf	_time^(0+128),w
  8774  179C  160A  158A  2782  160A  118A  	fcall	_clcd_putch
  8775  17A1                     l4281:
  8776                           
  8777                           ;car_black_box_def.c: 51:     clcd_putch(time[1], (0xC0 + 3));
  8778  17A1  30C3               	movlw	195
  8779  17A2  1283               	bcf	3,5	;RP0=0, select bank0
  8780  17A3  1303               	bcf	3,6	;RP1=0, select bank0
  8781  17A4  00B0               	movwf	??_display_time
  8782  17A5  0830               	movf	??_display_time,w
  8783  17A6  00AE               	movwf	clcd_putch@addr
  8784  17A7  1683               	bsf	3,5	;RP0=1, select bank1
  8785  17A8  1303               	bcf	3,6	;RP1=0, select bank1
  8786  17A9  0837               	movf	(_time^(0+128)+1),w
  8787  17AA  160A  158A  2782  160A  118A  	fcall	_clcd_putch
  8788  17AF                     l4283:
  8789                           
  8790                           ;car_black_box_def.c: 52:     clcd_putch(':', (0xC0 + 4));
  8791  17AF  30C4               	movlw	196
  8792  17B0  1283               	bcf	3,5	;RP0=0, select bank0
  8793  17B1  1303               	bcf	3,6	;RP1=0, select bank0
  8794  17B2  00B0               	movwf	??_display_time
  8795  17B3  0830               	movf	??_display_time,w
  8796  17B4  00AE               	movwf	clcd_putch@addr
  8797  17B5  303A               	movlw	58
  8798  17B6  160A  158A  2782  160A  118A  	fcall	_clcd_putch
  8799  17BB                     l4285:
  8800                           
  8801                           ;car_black_box_def.c: 53:     clcd_putch(time[2], (0xC0 + 5));
  8802  17BB  30C5               	movlw	197
  8803  17BC  1283               	bcf	3,5	;RP0=0, select bank0
  8804  17BD  1303               	bcf	3,6	;RP1=0, select bank0
  8805  17BE  00B0               	movwf	??_display_time
  8806  17BF  0830               	movf	??_display_time,w
  8807  17C0  00AE               	movwf	clcd_putch@addr
  8808  17C1  1683               	bsf	3,5	;RP0=1, select bank1
  8809  17C2  1303               	bcf	3,6	;RP1=0, select bank1
  8810  17C3  0838               	movf	(_time^(0+128)+2),w
  8811  17C4  160A  158A  2782  160A  118A  	fcall	_clcd_putch
  8812  17C9                     l4287:
  8813                           
  8814                           ;car_black_box_def.c: 54:     clcd_putch(time[3], (0xC0 + 6));
  8815  17C9  30C6               	movlw	198
  8816  17CA  1283               	bcf	3,5	;RP0=0, select bank0
  8817  17CB  1303               	bcf	3,6	;RP1=0, select bank0
  8818  17CC  00B0               	movwf	??_display_time
  8819  17CD  0830               	movf	??_display_time,w
  8820  17CE  00AE               	movwf	clcd_putch@addr
  8821  17CF  1683               	bsf	3,5	;RP0=1, select bank1
  8822  17D0  1303               	bcf	3,6	;RP1=0, select bank1
  8823  17D1  0839               	movf	(_time^(0+128)+3),w
  8824  17D2  160A  158A  2782  160A  118A  	fcall	_clcd_putch
  8825  17D7                     l4289:
  8826                           
  8827                           ;car_black_box_def.c: 55:     clcd_putch(':', (0xC0 + 7));
  8828  17D7  30C7               	movlw	199
  8829  17D8  1283               	bcf	3,5	;RP0=0, select bank0
  8830  17D9  1303               	bcf	3,6	;RP1=0, select bank0
  8831  17DA  00B0               	movwf	??_display_time
  8832  17DB  0830               	movf	??_display_time,w
  8833  17DC  00AE               	movwf	clcd_putch@addr
  8834  17DD  303A               	movlw	58
  8835  17DE  160A  158A  2782  160A  118A  	fcall	_clcd_putch
  8836  17E3                     l4291:
  8837                           
  8838                           ;car_black_box_def.c: 56:     clcd_putch(time[4], (0xC0 + 8));
  8839  17E3  30C8               	movlw	200
  8840  17E4  1283               	bcf	3,5	;RP0=0, select bank0
  8841  17E5  1303               	bcf	3,6	;RP1=0, select bank0
  8842  17E6  00B0               	movwf	??_display_time
  8843  17E7  0830               	movf	??_display_time,w
  8844  17E8  00AE               	movwf	clcd_putch@addr
  8845  17E9  1683               	bsf	3,5	;RP0=1, select bank1
  8846  17EA  1303               	bcf	3,6	;RP1=0, select bank1
  8847  17EB  083A               	movf	(_time^(0+128)+4),w
  8848  17EC  160A  158A  2782  160A  118A  	fcall	_clcd_putch
  8849  17F1                     l4293:
  8850                           
  8851                           ;car_black_box_def.c: 57:     clcd_putch(time[5], (0xC0 + 9));
  8852  17F1  30C9               	movlw	201
  8853  17F2  1283               	bcf	3,5	;RP0=0, select bank0
  8854  17F3  1303               	bcf	3,6	;RP1=0, select bank0
  8855  17F4  00B0               	movwf	??_display_time
  8856  17F5  0830               	movf	??_display_time,w
  8857  17F6  00AE               	movwf	clcd_putch@addr
  8858  17F7  1683               	bsf	3,5	;RP0=1, select bank1
  8859  17F8  1303               	bcf	3,6	;RP1=0, select bank1
  8860  17F9  083B               	movf	(_time^(0+128)+5),w
  8861  17FA  160A  158A  2782  160A  118A  	fcall	_clcd_putch
  8862  17FF                     l352:
  8863  17FF  0008               	return
  8864  1800                     __end_of_display_time:
  8865                           
  8866                           	psect	text30
  8867  1192                     __ptext30:	
  8868 ;; *************** function _get_time *****************
  8869 ;; Defined at:
  8870 ;;		line 23 in file "car_black_box_def.c"
  8871 ;; Parameters:    Size  Location     Type
  8872 ;;		None
  8873 ;; Auto vars:     Size  Location     Type
  8874 ;;		None
  8875 ;; Return value:  Size  Location     Type
  8876 ;;                  1    wreg      void 
  8877 ;; Registers used:
  8878 ;;		wreg, status,2, status,0, pclath, cstack
  8879 ;; Tracked objects:
  8880 ;;		On entry : 0/0
  8881 ;;		On exit  : 0/0
  8882 ;;		Unchanged: 0/0
  8883 ;; Data sizes:     COMMON   BANK0   BANK1   BANK3   BANK2
  8884 ;;      Params:         0       0       0       0       0
  8885 ;;      Locals:         0       0       0       0       0
  8886 ;;      Temps:          0       1       0       0       0
  8887 ;;      Totals:         0       1       0       0       0
  8888 ;;Total ram usage:        1 bytes
  8889 ;; Hardware stack levels used: 1
  8890 ;; Hardware stack levels required when called: 5
  8891 ;; This function calls:
  8892 ;;		_read_ds1307
  8893 ;; This function is called by:
  8894 ;;		_display_time
  8895 ;;		_set_time
  8896 ;; This function uses a non-reentrant model
  8897 ;;
  8898                           
  8899                           
  8900                           ;psect for function _get_time
  8901  1192                     _get_time:
  8902  1192                     l4169:	
  8903                           ;incstack = 0
  8904                           ; Regs used in _get_time: [wreg+status,2+status,0+pclath+cstack]
  8905                           
  8906                           
  8907                           ;car_black_box_def.c: 25:     clock_reg[0] = read_ds1307(0x02);
  8908  1192  3002               	movlw	2
  8909  1193  160A  118A  2318  160A  118A  	fcall	_read_ds1307
  8910  1198  1283               	bcf	3,5	;RP0=0, select bank0
  8911  1199  1303               	bcf	3,6	;RP1=0, select bank0
  8912  119A  00A3               	movwf	??_get_time
  8913  119B  0823               	movf	??_get_time,w
  8914  119C  00BE               	movwf	_clock_reg
  8915                           
  8916                           ;car_black_box_def.c: 26:     clock_reg[1] = read_ds1307(0x01);
  8917  119D  3001               	movlw	1
  8918  119E  160A  118A  2318  160A  118A  	fcall	_read_ds1307
  8919  11A3  1283               	bcf	3,5	;RP0=0, select bank0
  8920  11A4  1303               	bcf	3,6	;RP1=0, select bank0
  8921  11A5  00A3               	movwf	??_get_time
  8922  11A6  0823               	movf	??_get_time,w
  8923  11A7  00BF               	movwf	_clock_reg+1
  8924                           
  8925                           ;car_black_box_def.c: 27:     clock_reg[2] = read_ds1307(0x00);
  8926  11A8  3000               	movlw	0
  8927  11A9  160A  118A  2318  160A  118A  	fcall	_read_ds1307
  8928  11AE  1283               	bcf	3,5	;RP0=0, select bank0
  8929  11AF  1303               	bcf	3,6	;RP1=0, select bank0
  8930  11B0  00A3               	movwf	??_get_time
  8931  11B1  0823               	movf	??_get_time,w
  8932  11B2  00C0               	movwf	_clock_reg+2
  8933  11B3                     l349:
  8934  11B3  0008               	return
  8935  11B4                     __end_of_get_time:
  8936                           
  8937                           	psect	text31
  8938  1318                     __ptext31:	
  8939 ;; *************** function _read_ds1307 *****************
  8940 ;; Defined at:
  8941 ;;		line 14 in file "ds1307.c"
  8942 ;; Parameters:    Size  Location     Type
  8943 ;;  addr            1    wreg     unsigned char 
  8944 ;; Auto vars:     Size  Location     Type
  8945 ;;  addr            1    1[BANK0 ] unsigned char 
  8946 ;;  data            1    2[BANK0 ] unsigned char 
  8947 ;; Return value:  Size  Location     Type
  8948 ;;                  1    wreg      unsigned char 
  8949 ;; Registers used:
  8950 ;;		wreg, status,2, status,0, pclath, cstack
  8951 ;; Tracked objects:
  8952 ;;		On entry : 0/0
  8953 ;;		On exit  : 0/0
  8954 ;;		Unchanged: 0/0
  8955 ;; Data sizes:     COMMON   BANK0   BANK1   BANK3   BANK2
  8956 ;;      Params:         0       0       0       0       0
  8957 ;;      Locals:         0       2       0       0       0
  8958 ;;      Temps:          0       1       0       0       0
  8959 ;;      Totals:         0       3       0       0       0
  8960 ;;Total ram usage:        3 bytes
  8961 ;; Hardware stack levels used: 1
  8962 ;; Hardware stack levels required when called: 4
  8963 ;; This function calls:
  8964 ;;		_i2c_read
  8965 ;;		_i2c_rep_start
  8966 ;;		_i2c_start
  8967 ;;		_i2c_stop
  8968 ;;		_i2c_write
  8969 ;; This function is called by:
  8970 ;;		_init_ds1307
  8971 ;;		_get_time
  8972 ;; This function uses a non-reentrant model
  8973 ;;
  8974                           
  8975                           
  8976                           ;psect for function _read_ds1307
  8977  1318                     _read_ds1307:
  8978                           
  8979                           ;incstack = 0
  8980                           ; Regs used in _read_ds1307: [wreg+status,2+status,0+pclath+cstack]
  8981                           ;read_ds1307@addr stored from wreg
  8982  1318  1283               	bcf	3,5	;RP0=0, select bank0
  8983  1319  1303               	bcf	3,6	;RP1=0, select bank0
  8984  131A  00A1               	movwf	read_ds1307@addr
  8985  131B                     l4123:
  8986                           
  8987                           ;ds1307.c: 14: unsigned char read_ds1307(unsigned char addr);ds1307.c: 15: {;ds1307.c: 1
      +                          6:     unsigned char data;;ds1307.c: 18:     i2c_start();
  8988  131B  160A  158A  270C  160A  118A  	fcall	_i2c_start
  8989                           
  8990                           ;ds1307.c: 19:     i2c_write(0b11010000);
  8991  1320  30D0               	movlw	208
  8992  1321  160A  158A  2728  160A  118A  	fcall	_i2c_write
  8993                           
  8994                           ;ds1307.c: 20:     i2c_write(addr);
  8995  1326  1283               	bcf	3,5	;RP0=0, select bank0
  8996  1327  1303               	bcf	3,6	;RP1=0, select bank0
  8997  1328  0821               	movf	read_ds1307@addr,w
  8998  1329  160A  158A  2728  160A  118A  	fcall	_i2c_write
  8999                           
  9000                           ;ds1307.c: 21:     i2c_rep_start();
  9001  132E  160A  158A  2733  160A  118A  	fcall	_i2c_rep_start
  9002                           
  9003                           ;ds1307.c: 22:     i2c_write(0b11010001);
  9004  1333  30D1               	movlw	209
  9005  1334  160A  158A  2728  160A  118A  	fcall	_i2c_write
  9006                           
  9007                           ;ds1307.c: 23:     data = i2c_read(0);
  9008  1339  3000               	movlw	0
  9009  133A  160A  118A  21B4  160A  118A  	fcall	_i2c_read
  9010  133F  1283               	bcf	3,5	;RP0=0, select bank0
  9011  1340  1303               	bcf	3,6	;RP1=0, select bank0
  9012  1341  00A0               	movwf	??_read_ds1307
  9013  1342  0820               	movf	??_read_ds1307,w
  9014  1343  00A2               	movwf	read_ds1307@data
  9015                           
  9016                           ;ds1307.c: 24:     i2c_stop();
  9017  1344  160A  158A  2715  160A  118A  	fcall	_i2c_stop
  9018  1349                     l4125:
  9019                           
  9020                           ;ds1307.c: 26:     return data;
  9021  1349  1283               	bcf	3,5	;RP0=0, select bank0
  9022  134A  1303               	bcf	3,6	;RP1=0, select bank0
  9023  134B  0822               	movf	read_ds1307@data,w
  9024  134C                     l52:
  9025  134C  0008               	return
  9026  134D                     __end_of_read_ds1307:
  9027                           
  9028                           	psect	text32
  9029  1F33                     __ptext32:	
  9030 ;; *************** function _i2c_rep_start *****************
  9031 ;; Defined at:
  9032 ;;		line 28 in file "i2c.c"
  9033 ;; Parameters:    Size  Location     Type
  9034 ;;		None
  9035 ;; Auto vars:     Size  Location     Type
  9036 ;;		None
  9037 ;; Return value:  Size  Location     Type
  9038 ;;                  1    wreg      void 
  9039 ;; Registers used:
  9040 ;;		wreg, status,2, status,0, pclath, cstack
  9041 ;; Tracked objects:
  9042 ;;		On entry : 0/0
  9043 ;;		On exit  : 0/0
  9044 ;;		Unchanged: 0/0
  9045 ;; Data sizes:     COMMON   BANK0   BANK1   BANK3   BANK2
  9046 ;;      Params:         0       0       0       0       0
  9047 ;;      Locals:         0       0       0       0       0
  9048 ;;      Temps:          0       0       0       0       0
  9049 ;;      Totals:         0       0       0       0       0
  9050 ;;Total ram usage:        0 bytes
  9051 ;; Hardware stack levels used: 1
  9052 ;; Hardware stack levels required when called: 3
  9053 ;; This function calls:
  9054 ;;		_i2c_start
  9055 ;;		_i2c_stop
  9056 ;; This function is called by:
  9057 ;;		_read_ds1307
  9058 ;;		_read_EEPROM
  9059 ;; This function uses a non-reentrant model
  9060 ;;
  9061                           
  9062                           
  9063                           ;psect for function _i2c_rep_start
  9064  1F33                     _i2c_rep_start:
  9065  1F33                     l4087:	
  9066                           ;incstack = 0
  9067                           ; Regs used in _i2c_rep_start: [wreg+status,2+status,0+pclath+cstack]
  9068                           
  9069                           
  9070                           ;i2c.c: 30:     i2c_stop();
  9071  1F33  160A  158A  2715  160A  158A  	fcall	_i2c_stop
  9072                           
  9073                           ;i2c.c: 31:     i2c_start();
  9074  1F38  160A  158A  270C  160A  158A  	fcall	_i2c_start
  9075  1F3D                     l96:
  9076  1F3D  0008               	return
  9077  1F3E                     __end_of_i2c_rep_start:
  9078                           
  9079                           	psect	text33
  9080  11B4                     __ptext33:	
  9081 ;; *************** function _i2c_read *****************
  9082 ;; Defined at:
  9083 ;;		line 41 in file "i2c.c"
  9084 ;; Parameters:    Size  Location     Type
  9085 ;;  ack             1    wreg     unsigned char 
  9086 ;; Auto vars:     Size  Location     Type
  9087 ;;  ack             1    5[COMMON] unsigned char 
  9088 ;;  data            1    6[COMMON] unsigned char 
  9089 ;; Return value:  Size  Location     Type
  9090 ;;                  1    wreg      unsigned char 
  9091 ;; Registers used:
  9092 ;;		wreg, status,2, status,0, pclath, cstack
  9093 ;; Tracked objects:
  9094 ;;		On entry : 0/0
  9095 ;;		On exit  : 0/0
  9096 ;;		Unchanged: 0/0
  9097 ;; Data sizes:     COMMON   BANK0   BANK1   BANK3   BANK2
  9098 ;;      Params:         0       0       0       0       0
  9099 ;;      Locals:         2       0       0       0       0
  9100 ;;      Temps:          1       0       0       0       0
  9101 ;;      Totals:         3       0       0       0       0
  9102 ;;Total ram usage:        3 bytes
  9103 ;; Hardware stack levels used: 1
  9104 ;; Hardware stack levels required when called: 2
  9105 ;; This function calls:
  9106 ;;		_i2c_wait_for_idle
  9107 ;; This function is called by:
  9108 ;;		_read_ds1307
  9109 ;;		_read_EEPROM
  9110 ;; This function uses a non-reentrant model
  9111 ;;
  9112                           
  9113                           
  9114                           ;psect for function _i2c_read
  9115  11B4                     _i2c_read:
  9116                           
  9117                           ;incstack = 0
  9118                           ; Regs used in _i2c_read: [wreg+status,2+status,0+pclath+cstack]
  9119                           ;i2c_read@ack stored from wreg
  9120  11B4  00F5               	movwf	i2c_read@ack
  9121  11B5                     l4089:
  9122                           
  9123                           ;i2c.c: 41: unsigned char i2c_read(unsigned char ack);i2c.c: 42: {;i2c.c: 43:     unsign
      +                          ed char data;;i2c.c: 45:     i2c_wait_for_idle();
  9124  11B5  120A  118A  27F3  160A  118A  	fcall	_i2c_wait_for_idle
  9125  11BA                     l4091:
  9126                           
  9127                           ;i2c.c: 46:     RCEN = 1;
  9128  11BA  1683               	bsf	3,5	;RP0=1, select bank1
  9129  11BB  1303               	bcf	3,6	;RP1=0, select bank1
  9130  11BC  1591               	bsf	17,3	;volatile
  9131                           
  9132                           ;i2c.c: 48:     i2c_wait_for_idle();
  9133  11BD  120A  118A  27F3  160A  118A  	fcall	_i2c_wait_for_idle
  9134  11C2                     l4093:
  9135                           
  9136                           ;i2c.c: 49:     data = SSPBUF;
  9137  11C2  1283               	bcf	3,5	;RP0=0, select bank0
  9138  11C3  1303               	bcf	3,6	;RP1=0, select bank0
  9139  11C4  0813               	movf	19,w	;volatile
  9140  11C5  00F4               	movwf	??_i2c_read
  9141  11C6  0874               	movf	??_i2c_read,w
  9142  11C7  00F6               	movwf	i2c_read@data
  9143  11C8                     l4095:
  9144                           
  9145                           ;i2c.c: 51:     if (ack == 1)
  9146  11C8  0375               	decf	i2c_read@ack,w
  9147  11C9  1D03               	btfss	3,2
  9148  11CA  29CC               	goto	u3411
  9149  11CB  29CD               	goto	u3410
  9150  11CC                     u3411:
  9151  11CC  29D1               	goto	l102
  9152  11CD                     u3410:
  9153  11CD                     l4097:
  9154                           
  9155                           ;i2c.c: 52:     {;i2c.c: 53:         ACKDT = 1;
  9156  11CD  1683               	bsf	3,5	;RP0=1, select bank1
  9157  11CE  1303               	bcf	3,6	;RP1=0, select bank1
  9158  11CF  1691               	bsf	17,5	;volatile
  9159                           
  9160                           ;i2c.c: 54:     }
  9161  11D0  29D4               	goto	l103
  9162  11D1                     l102:	
  9163                           ;i2c.c: 55:     else
  9164                           
  9165                           
  9166                           ;i2c.c: 56:     {;i2c.c: 57:         ACKDT = 0;
  9167  11D1  1683               	bsf	3,5	;RP0=1, select bank1
  9168  11D2  1303               	bcf	3,6	;RP1=0, select bank1
  9169  11D3  1291               	bcf	17,5	;volatile
  9170  11D4                     l103:	
  9171                           ;i2c.c: 58:     }
  9172                           
  9173                           
  9174                           ;i2c.c: 60:     ACKEN = 1;
  9175  11D4  1611               	bsf	17,4	;volatile
  9176  11D5                     l4099:
  9177                           
  9178                           ;i2c.c: 62:     return data;
  9179  11D5  0876               	movf	i2c_read@data,w
  9180  11D6                     l104:
  9181  11D6  0008               	return
  9182  11D7                     __end_of_i2c_read:
  9183                           
  9184                           	psect	text34
  9185  146C                     __ptext34:	
  9186 ;; *************** function _dec2bcd *****************
  9187 ;; Defined at:
  9188 ;;		line 641 in file "car_black_box_def.c"
  9189 ;; Parameters:    Size  Location     Type
  9190 ;;  num             1    wreg     unsigned char 
  9191 ;; Auto vars:     Size  Location     Type
  9192 ;;  num             1   20[BANK0 ] unsigned char 
  9193 ;;  temp            1   19[BANK0 ] unsigned char 
  9194 ;;  tens            1   18[BANK0 ] unsigned char 
  9195 ;;  ones            1   17[BANK0 ] unsigned char 
  9196 ;; Return value:  Size  Location     Type
  9197 ;;                  1    wreg      unsigned char 
  9198 ;; Registers used:
  9199 ;;		wreg, status,2, status,0, pclath, cstack
  9200 ;; Tracked objects:
  9201 ;;		On entry : 0/0
  9202 ;;		On exit  : 0/0
  9203 ;;		Unchanged: 0/0
  9204 ;; Data sizes:     COMMON   BANK0   BANK1   BANK3   BANK2
  9205 ;;      Params:         0       0       0       0       0
  9206 ;;      Locals:         0       4       0       0       0
  9207 ;;      Temps:          0       3       0       0       0
  9208 ;;      Totals:         0       7       0       0       0
  9209 ;;Total ram usage:        7 bytes
  9210 ;; Hardware stack levels used: 1
  9211 ;; Hardware stack levels required when called: 2
  9212 ;; This function calls:
  9213 ;;		___awdiv
  9214 ;;		___awmod
  9215 ;; This function is called by:
  9216 ;;		_main
  9217 ;; This function uses a non-reentrant model
  9218 ;;
  9219                           
  9220                           
  9221                           ;psect for function _dec2bcd
  9222  146C                     _dec2bcd:
  9223                           
  9224                           ;incstack = 0
  9225                           ; Regs used in _dec2bcd: [wreg+status,2+status,0+pclath+cstack]
  9226                           ;dec2bcd@num stored from wreg
  9227  146C  1283               	bcf	3,5	;RP0=0, select bank0
  9228  146D  1303               	bcf	3,6	;RP1=0, select bank0
  9229  146E  00B4               	movwf	dec2bcd@num
  9230  146F                     l4489:
  9231                           
  9232                           ;car_black_box_def.c: 644:     unsigned char tens = 0;
  9233  146F  01B2               	clrf	dec2bcd@tens
  9234                           
  9235                           ;car_black_box_def.c: 645:     unsigned char temp = 0;
  9236  1470  01B3               	clrf	dec2bcd@temp
  9237  1471                     l4491:
  9238                           
  9239                           ;car_black_box_def.c: 647:     ones = num % 10;
  9240  1471  300A               	movlw	10
  9241  1472  00A8               	movwf	___awmod@divisor
  9242  1473  3000               	movlw	0
  9243  1474  00A9               	movwf	___awmod@divisor+1
  9244  1475  0834               	movf	dec2bcd@num,w
  9245  1476  00AE               	movwf	??_dec2bcd
  9246  1477  01AF               	clrf	??_dec2bcd+1
  9247  1478  082E               	movf	??_dec2bcd,w
  9248  1479  00AA               	movwf	___awmod@dividend
  9249  147A  082F               	movf	??_dec2bcd+1,w
  9250  147B  00AB               	movwf	___awmod@dividend+1
  9251  147C  160A  118A  254C  160A  118A  	fcall	___awmod
  9252  1481  1283               	bcf	3,5	;RP0=0, select bank0
  9253  1482  1303               	bcf	3,6	;RP1=0, select bank0
  9254  1483  0828               	movf	?___awmod,w
  9255  1484  00B0               	movwf	??_dec2bcd+2
  9256  1485  0830               	movf	??_dec2bcd+2,w
  9257  1486  00B1               	movwf	dec2bcd@ones
  9258  1487                     l4493:
  9259                           
  9260                           ;car_black_box_def.c: 648:     temp = num / 10;
  9261  1487  300A               	movlw	10
  9262  1488  00A0               	movwf	___awdiv@divisor
  9263  1489  3000               	movlw	0
  9264  148A  00A1               	movwf	___awdiv@divisor+1
  9265  148B  0834               	movf	dec2bcd@num,w
  9266  148C  00AE               	movwf	??_dec2bcd
  9267  148D  01AF               	clrf	??_dec2bcd+1
  9268  148E  082E               	movf	??_dec2bcd,w
  9269  148F  00A2               	movwf	___awdiv@dividend
  9270  1490  082F               	movf	??_dec2bcd+1,w
  9271  1491  00A3               	movwf	___awdiv@dividend+1
  9272  1492  160A  118A  26D0  160A  118A  	fcall	___awdiv
  9273  1497  1283               	bcf	3,5	;RP0=0, select bank0
  9274  1498  1303               	bcf	3,6	;RP1=0, select bank0
  9275  1499  0820               	movf	?___awdiv,w
  9276  149A  00B0               	movwf	??_dec2bcd+2
  9277  149B  0830               	movf	??_dec2bcd+2,w
  9278  149C  00B3               	movwf	dec2bcd@temp
  9279  149D                     l4495:
  9280                           
  9281                           ;car_black_box_def.c: 649:     tens = temp<<4;
  9282  149D  0833               	movf	dec2bcd@temp,w
  9283  149E  00AE               	movwf	??_dec2bcd
  9284  149F  3003               	movlw	3
  9285  14A0                     u3955:
  9286  14A0  1003               	clrc
  9287  14A1  0DAE               	rlf	??_dec2bcd,f
  9288  14A2  3EFF               	addlw	-1
  9289  14A3  1D03               	skipz
  9290  14A4  2CA0               	goto	u3955
  9291  14A5  1003               	clrc
  9292  14A6  0D2E               	rlf	??_dec2bcd,w
  9293  14A7  00AF               	movwf	??_dec2bcd+1
  9294  14A8  082F               	movf	??_dec2bcd+1,w
  9295  14A9  00B2               	movwf	dec2bcd@tens
  9296  14AA                     l4497:
  9297                           
  9298                           ;car_black_box_def.c: 651:     return (tens + ones);
  9299  14AA  0831               	movf	dec2bcd@ones,w
  9300  14AB  0732               	addwf	dec2bcd@tens,w
  9301  14AC                     l504:
  9302  14AC  0008               	return
  9303  14AD                     __end_of_dec2bcd:
  9304                           
  9305                           	psect	text35
  9306  154C                     __ptext35:	
  9307 ;; *************** function ___awmod *****************
  9308 ;; Defined at:
  9309 ;;		line 5 in file "C:\Program Files\Microchip\xc8\v2.32\pic\sources\c90\common\awmod.c"
  9310 ;; Parameters:    Size  Location     Type
  9311 ;;  divisor         2    8[BANK0 ] int 
  9312 ;;  dividend        2   10[BANK0 ] int 
  9313 ;; Auto vars:     Size  Location     Type
  9314 ;;  sign            1   13[BANK0 ] unsigned char 
  9315 ;;  counter         1   12[BANK0 ] unsigned char 
  9316 ;; Return value:  Size  Location     Type
  9317 ;;                  2    8[BANK0 ] int 
  9318 ;; Registers used:
  9319 ;;		wreg, status,2, status,0
  9320 ;; Tracked objects:
  9321 ;;		On entry : 0/0
  9322 ;;		On exit  : 0/0
  9323 ;;		Unchanged: 0/0
  9324 ;; Data sizes:     COMMON   BANK0   BANK1   BANK3   BANK2
  9325 ;;      Params:         0       4       0       0       0
  9326 ;;      Locals:         0       2       0       0       0
  9327 ;;      Temps:          1       0       0       0       0
  9328 ;;      Totals:         1       6       0       0       0
  9329 ;;Total ram usage:        7 bytes
  9330 ;; Hardware stack levels used: 1
  9331 ;; Hardware stack levels required when called: 1
  9332 ;; This function calls:
  9333 ;;		Nothing
  9334 ;; This function is called by:
  9335 ;;		_display_dash_screen
  9336 ;;		_log_event
  9337 ;;		_login
  9338 ;;		_set_time
  9339 ;;		_dec2bcd
  9340 ;; This function uses a non-reentrant model
  9341 ;;
  9342                           
  9343                           
  9344                           ;psect for function ___awmod
  9345  154C                     ___awmod:
  9346  154C                     l4393:	
  9347                           ;incstack = 0
  9348                           ; Regs used in ___awmod: [wreg+status,2+status,0]
  9349                           
  9350  154C  1283               	bcf	3,5	;RP0=0, select bank0
  9351  154D  1303               	bcf	3,6	;RP1=0, select bank0
  9352  154E  01AD               	clrf	___awmod@sign
  9353  154F                     l4395:
  9354  154F  1FAB               	btfss	___awmod@dividend+1,7
  9355  1550  2D52               	goto	u3811
  9356  1551  2D53               	goto	u3810
  9357  1552                     u3811:
  9358  1552  2D5A               	goto	l4401
  9359  1553                     u3810:
  9360  1553                     l4397:
  9361  1553  09AA               	comf	___awmod@dividend,f
  9362  1554  09AB               	comf	___awmod@dividend+1,f
  9363  1555  0AAA               	incf	___awmod@dividend,f
  9364  1556  1903               	skipnz
  9365  1557  0AAB               	incf	___awmod@dividend+1,f
  9366  1558                     l4399:
  9367  1558  01AD               	clrf	___awmod@sign
  9368  1559  0AAD               	incf	___awmod@sign,f
  9369  155A                     l4401:
  9370  155A  1FA9               	btfss	___awmod@divisor+1,7
  9371  155B  2D5D               	goto	u3821
  9372  155C  2D5E               	goto	u3820
  9373  155D                     u3821:
  9374  155D  2D63               	goto	l4405
  9375  155E                     u3820:
  9376  155E                     l4403:
  9377  155E  09A8               	comf	___awmod@divisor,f
  9378  155F  09A9               	comf	___awmod@divisor+1,f
  9379  1560  0AA8               	incf	___awmod@divisor,f
  9380  1561  1903               	skipnz
  9381  1562  0AA9               	incf	___awmod@divisor+1,f
  9382  1563                     l4405:
  9383  1563  0828               	movf	___awmod@divisor,w
  9384  1564  0429               	iorwf	___awmod@divisor+1,w
  9385  1565  1903               	btfsc	3,2
  9386  1566  2D68               	goto	u3831
  9387  1567  2D69               	goto	u3830
  9388  1568                     u3831:
  9389  1568  2D98               	goto	l4423
  9390  1569                     u3830:
  9391  1569                     l4407:
  9392  1569  01AC               	clrf	___awmod@counter
  9393  156A  0AAC               	incf	___awmod@counter,f
  9394  156B  2D77               	goto	l4413
  9395  156C                     l4409:
  9396  156C  3001               	movlw	1
  9397  156D                     u3845:
  9398  156D  1003               	clrc
  9399  156E  0DA8               	rlf	___awmod@divisor,f
  9400  156F  0DA9               	rlf	___awmod@divisor+1,f
  9401  1570  3EFF               	addlw	-1
  9402  1571  1D03               	skipz
  9403  1572  2D6D               	goto	u3845
  9404  1573                     l4411:
  9405  1573  3001               	movlw	1
  9406  1574  00F5               	movwf	??___awmod
  9407  1575  0875               	movf	??___awmod,w
  9408  1576  07AC               	addwf	___awmod@counter,f
  9409  1577                     l4413:
  9410  1577  1FA9               	btfss	___awmod@divisor+1,7
  9411  1578  2D7A               	goto	u3851
  9412  1579  2D7B               	goto	u3850
  9413  157A                     u3851:
  9414  157A  2D6C               	goto	l4409
  9415  157B                     u3850:
  9416  157B                     l4415:
  9417  157B  0829               	movf	___awmod@divisor+1,w
  9418  157C  022B               	subwf	___awmod@dividend+1,w
  9419  157D  1D03               	skipz
  9420  157E  2D81               	goto	u3865
  9421  157F  0828               	movf	___awmod@divisor,w
  9422  1580  022A               	subwf	___awmod@dividend,w
  9423  1581                     u3865:
  9424  1581  1C03               	skipc
  9425  1582  2D84               	goto	u3861
  9426  1583  2D85               	goto	u3860
  9427  1584                     u3861:
  9428  1584  2D8B               	goto	l4419
  9429  1585                     u3860:
  9430  1585                     l4417:
  9431  1585  0828               	movf	___awmod@divisor,w
  9432  1586  02AA               	subwf	___awmod@dividend,f
  9433  1587  0829               	movf	___awmod@divisor+1,w
  9434  1588  1C03               	skipc
  9435  1589  03AB               	decf	___awmod@dividend+1,f
  9436  158A  02AB               	subwf	___awmod@dividend+1,f
  9437  158B                     l4419:
  9438  158B  3001               	movlw	1
  9439  158C                     u3875:
  9440  158C  1003               	clrc
  9441  158D  0CA9               	rrf	___awmod@divisor+1,f
  9442  158E  0CA8               	rrf	___awmod@divisor,f
  9443  158F  3EFF               	addlw	-1
  9444  1590  1D03               	skipz
  9445  1591  2D8C               	goto	u3875
  9446  1592                     l4421:
  9447  1592  3001               	movlw	1
  9448  1593  02AC               	subwf	___awmod@counter,f
  9449  1594  1D03               	btfss	3,2
  9450  1595  2D97               	goto	u3881
  9451  1596  2D98               	goto	u3880
  9452  1597                     u3881:
  9453  1597  2D7B               	goto	l4415
  9454  1598                     u3880:
  9455  1598                     l4423:
  9456  1598  082D               	movf	___awmod@sign,w
  9457  1599  1903               	btfsc	3,2
  9458  159A  2D9C               	goto	u3891
  9459  159B  2D9D               	goto	u3890
  9460  159C                     u3891:
  9461  159C  2DA2               	goto	l4427
  9462  159D                     u3890:
  9463  159D                     l4425:
  9464  159D  09AA               	comf	___awmod@dividend,f
  9465  159E  09AB               	comf	___awmod@dividend+1,f
  9466  159F  0AAA               	incf	___awmod@dividend,f
  9467  15A0  1903               	skipnz
  9468  15A1  0AAB               	incf	___awmod@dividend+1,f
  9469  15A2                     l4427:
  9470  15A2  082B               	movf	___awmod@dividend+1,w
  9471  15A3  00A9               	movwf	?___awmod+1
  9472  15A4  082A               	movf	___awmod@dividend,w
  9473  15A5  00A8               	movwf	?___awmod
  9474  15A6                     l822:
  9475  15A6  0008               	return
  9476  15A7                     __end_of___awmod:
  9477                           
  9478                           	psect	text36
  9479  16D0                     __ptext36:	
  9480 ;; *************** function ___awdiv *****************
  9481 ;; Defined at:
  9482 ;;		line 5 in file "C:\Program Files\Microchip\xc8\v2.32\pic\sources\c90\common\awdiv.c"
  9483 ;; Parameters:    Size  Location     Type
  9484 ;;  divisor         2    0[BANK0 ] int 
  9485 ;;  dividend        2    2[BANK0 ] int 
  9486 ;; Auto vars:     Size  Location     Type
  9487 ;;  quotient        2    6[BANK0 ] int 
  9488 ;;  sign            1    5[BANK0 ] unsigned char 
  9489 ;;  counter         1    4[BANK0 ] unsigned char 
  9490 ;; Return value:  Size  Location     Type
  9491 ;;                  2    0[BANK0 ] int 
  9492 ;; Registers used:
  9493 ;;		wreg, status,2, status,0
  9494 ;; Tracked objects:
  9495 ;;		On entry : 0/0
  9496 ;;		On exit  : 0/0
  9497 ;;		Unchanged: 0/0
  9498 ;; Data sizes:     COMMON   BANK0   BANK1   BANK3   BANK2
  9499 ;;      Params:         0       4       0       0       0
  9500 ;;      Locals:         0       4       0       0       0
  9501 ;;      Temps:          1       0       0       0       0
  9502 ;;      Totals:         1       8       0       0       0
  9503 ;;Total ram usage:        9 bytes
  9504 ;; Hardware stack levels used: 1
  9505 ;; Hardware stack levels required when called: 1
  9506 ;; This function calls:
  9507 ;;		Nothing
  9508 ;; This function is called by:
  9509 ;;		_display_dash_screen
  9510 ;;		_log_event
  9511 ;;		_login
  9512 ;;		_set_time
  9513 ;;		_dec2bcd
  9514 ;; This function uses a non-reentrant model
  9515 ;;
  9516                           
  9517                           
  9518                           ;psect for function ___awdiv
  9519  16D0                     ___awdiv:
  9520  16D0                     l4349:	
  9521                           ;incstack = 0
  9522                           ; Regs used in ___awdiv: [wreg+status,2+status,0]
  9523                           
  9524  16D0  1283               	bcf	3,5	;RP0=0, select bank0
  9525  16D1  1303               	bcf	3,6	;RP1=0, select bank0
  9526  16D2  01A5               	clrf	___awdiv@sign
  9527  16D3                     l4351:
  9528  16D3  1FA1               	btfss	___awdiv@divisor+1,7
  9529  16D4  2ED6               	goto	u3711
  9530  16D5  2ED7               	goto	u3710
  9531  16D6                     u3711:
  9532  16D6  2EDE               	goto	l4357
  9533  16D7                     u3710:
  9534  16D7                     l4353:
  9535  16D7  09A0               	comf	___awdiv@divisor,f
  9536  16D8  09A1               	comf	___awdiv@divisor+1,f
  9537  16D9  0AA0               	incf	___awdiv@divisor,f
  9538  16DA  1903               	skipnz
  9539  16DB  0AA1               	incf	___awdiv@divisor+1,f
  9540  16DC                     l4355:
  9541  16DC  01A5               	clrf	___awdiv@sign
  9542  16DD  0AA5               	incf	___awdiv@sign,f
  9543  16DE                     l4357:
  9544  16DE  1FA3               	btfss	___awdiv@dividend+1,7
  9545  16DF  2EE1               	goto	u3721
  9546  16E0  2EE2               	goto	u3720
  9547  16E1                     u3721:
  9548  16E1  2EEB               	goto	l4363
  9549  16E2                     u3720:
  9550  16E2                     l4359:
  9551  16E2  09A2               	comf	___awdiv@dividend,f
  9552  16E3  09A3               	comf	___awdiv@dividend+1,f
  9553  16E4  0AA2               	incf	___awdiv@dividend,f
  9554  16E5  1903               	skipnz
  9555  16E6  0AA3               	incf	___awdiv@dividend+1,f
  9556  16E7                     l4361:
  9557  16E7  3001               	movlw	1
  9558  16E8  00F4               	movwf	??___awdiv
  9559  16E9  0874               	movf	??___awdiv,w
  9560  16EA  06A5               	xorwf	___awdiv@sign,f
  9561  16EB                     l4363:
  9562  16EB  01A6               	clrf	___awdiv@quotient
  9563  16EC  01A7               	clrf	___awdiv@quotient+1
  9564  16ED                     l4365:
  9565  16ED  0820               	movf	___awdiv@divisor,w
  9566  16EE  0421               	iorwf	___awdiv@divisor+1,w
  9567  16EF  1903               	btfsc	3,2
  9568  16F0  2EF2               	goto	u3731
  9569  16F1  2EF3               	goto	u3730
  9570  16F2                     u3731:
  9571  16F2  2F2A               	goto	l4385
  9572  16F3                     u3730:
  9573  16F3                     l4367:
  9574  16F3  01A4               	clrf	___awdiv@counter
  9575  16F4  0AA4               	incf	___awdiv@counter,f
  9576  16F5  2F01               	goto	l4373
  9577  16F6                     l4369:
  9578  16F6  3001               	movlw	1
  9579  16F7                     u3745:
  9580  16F7  1003               	clrc
  9581  16F8  0DA0               	rlf	___awdiv@divisor,f
  9582  16F9  0DA1               	rlf	___awdiv@divisor+1,f
  9583  16FA  3EFF               	addlw	-1
  9584  16FB  1D03               	skipz
  9585  16FC  2EF7               	goto	u3745
  9586  16FD                     l4371:
  9587  16FD  3001               	movlw	1
  9588  16FE  00F4               	movwf	??___awdiv
  9589  16FF  0874               	movf	??___awdiv,w
  9590  1700  07A4               	addwf	___awdiv@counter,f
  9591  1701                     l4373:
  9592  1701  1FA1               	btfss	___awdiv@divisor+1,7
  9593  1702  2F04               	goto	u3751
  9594  1703  2F05               	goto	u3750
  9595  1704                     u3751:
  9596  1704  2EF6               	goto	l4369
  9597  1705                     u3750:
  9598  1705                     l4375:
  9599  1705  3001               	movlw	1
  9600  1706                     u3765:
  9601  1706  1003               	clrc
  9602  1707  0DA6               	rlf	___awdiv@quotient,f
  9603  1708  0DA7               	rlf	___awdiv@quotient+1,f
  9604  1709  3EFF               	addlw	-1
  9605  170A  1D03               	skipz
  9606  170B  2F06               	goto	u3765
  9607  170C  0821               	movf	___awdiv@divisor+1,w
  9608  170D  0223               	subwf	___awdiv@dividend+1,w
  9609  170E  1D03               	skipz
  9610  170F  2F12               	goto	u3775
  9611  1710  0820               	movf	___awdiv@divisor,w
  9612  1711  0222               	subwf	___awdiv@dividend,w
  9613  1712                     u3775:
  9614  1712  1C03               	skipc
  9615  1713  2F15               	goto	u3771
  9616  1714  2F16               	goto	u3770
  9617  1715                     u3771:
  9618  1715  2F1D               	goto	l4381
  9619  1716                     u3770:
  9620  1716                     l4377:
  9621  1716  0820               	movf	___awdiv@divisor,w
  9622  1717  02A2               	subwf	___awdiv@dividend,f
  9623  1718  0821               	movf	___awdiv@divisor+1,w
  9624  1719  1C03               	skipc
  9625  171A  03A3               	decf	___awdiv@dividend+1,f
  9626  171B  02A3               	subwf	___awdiv@dividend+1,f
  9627  171C                     l4379:
  9628  171C  1426               	bsf	___awdiv@quotient,0
  9629  171D                     l4381:
  9630  171D  3001               	movlw	1
  9631  171E                     u3785:
  9632  171E  1003               	clrc
  9633  171F  0CA1               	rrf	___awdiv@divisor+1,f
  9634  1720  0CA0               	rrf	___awdiv@divisor,f
  9635  1721  3EFF               	addlw	-1
  9636  1722  1D03               	skipz
  9637  1723  2F1E               	goto	u3785
  9638  1724                     l4383:
  9639  1724  3001               	movlw	1
  9640  1725  02A4               	subwf	___awdiv@counter,f
  9641  1726  1D03               	btfss	3,2
  9642  1727  2F29               	goto	u3791
  9643  1728  2F2A               	goto	u3790
  9644  1729                     u3791:
  9645  1729  2F05               	goto	l4375
  9646  172A                     u3790:
  9647  172A                     l4385:
  9648  172A  0825               	movf	___awdiv@sign,w
  9649  172B  1903               	btfsc	3,2
  9650  172C  2F2E               	goto	u3801
  9651  172D  2F2F               	goto	u3800
  9652  172E                     u3801:
  9653  172E  2F34               	goto	l4389
  9654  172F                     u3800:
  9655  172F                     l4387:
  9656  172F  09A6               	comf	___awdiv@quotient,f
  9657  1730  09A7               	comf	___awdiv@quotient+1,f
  9658  1731  0AA6               	incf	___awdiv@quotient,f
  9659  1732  1903               	skipnz
  9660  1733  0AA7               	incf	___awdiv@quotient+1,f
  9661  1734                     l4389:
  9662  1734  0827               	movf	___awdiv@quotient+1,w
  9663  1735  00A1               	movwf	?___awdiv+1
  9664  1736  0826               	movf	___awdiv@quotient,w
  9665  1737  00A0               	movwf	?___awdiv
  9666  1738                     l809:
  9667  1738  0008               	return
  9668  1739                     __end_of___awdiv:
  9669                           
  9670                           	psect	text37
  9671  0E01                     __ptext37:	
  9672 ;; *************** function _change_password *****************
  9673 ;; Defined at:
  9674 ;;		line 296 in file "car_black_box_def.c"
  9675 ;; Parameters:    Size  Location     Type
  9676 ;;  reset_flag      1    wreg     unsigned char 
  9677 ;;  key             1   16[BANK0 ] unsigned char 
  9678 ;; Auto vars:     Size  Location     Type
  9679 ;;  reset_flag      1   20[BANK0 ] unsigned char 
  9680 ;;  k               1   21[BANK0 ] unsigned char 
  9681 ;; Return value:  Size  Location     Type
  9682 ;;                  1    wreg      unsigned char 
  9683 ;; Registers used:
  9684 ;;		wreg, fsr0l, fsr0h, status,2, status,0, btemp+1, pclath, cstack
  9685 ;; Tracked objects:
  9686 ;;		On entry : 0/0
  9687 ;;		On exit  : 0/0
  9688 ;;		Unchanged: 0/0
  9689 ;; Data sizes:     COMMON   BANK0   BANK1   BANK3   BANK2
  9690 ;;      Params:         0       1       0       0       0
  9691 ;;      Locals:         0       2       0       0       0
  9692 ;;      Temps:          0       3       0       0       0
  9693 ;;      Totals:         0       6       0       0       0
  9694 ;;Total ram usage:        6 bytes
  9695 ;; Hardware stack levels used: 1
  9696 ;; Hardware stack levels required when called: 4
  9697 ;; This function calls:
  9698 ;;		_byte_write_EEPROM
  9699 ;;		_clcd_print
  9700 ;;		_clcd_putch
  9701 ;;		_clcd_write
  9702 ;;		_clear_screen
  9703 ;;		_strncmp
  9704 ;; This function is called by:
  9705 ;;		_main
  9706 ;; This function uses a non-reentrant model
  9707 ;;
  9708                           
  9709                           
  9710                           ;psect for function _change_password
  9711  0E01                     _change_password:
  9712                           
  9713                           ;incstack = 0
  9714                           ; Regs used in _change_password: [wreg-fsr0h+status,2+status,0+btemp+1+pclath+cstack]
  9715                           ;change_password@reset_flag stored from wreg
  9716  0E01  1283               	bcf	3,5	;RP0=0, select bank0
  9717  0E02  1303               	bcf	3,6	;RP1=0, select bank0
  9718  0E03  00B4               	movwf	change_password@reset_flag
  9719  0E04                     l4941:
  9720                           
  9721                           ;car_black_box_def.c: 296: char change_password(unsigned char reset_flag, unsigned char 
      +                          key);car_black_box_def.c: 297: {;car_black_box_def.c: 298:     static char npasswd[4];;c
      +                          ar_black_box_def.c: 299:     static char re_npasswd[4];;car_black_box_def.c: 300:     st
      +                          atic unsigned char i, j;;car_black_box_def.c: 301:     static char flag = 0;;car_black_b
      +                          ox_def.c: 303:     if(reset_flag == 0x10)
  9722  0E04  3010               	movlw	16
  9723  0E05  0634               	xorwf	change_password@reset_flag,w
  9724  0E06  1D03               	btfss	3,2
  9725  0E07  2E09               	goto	u4521
  9726  0E08  2E0A               	goto	u4520
  9727  0E09                     u4521:
  9728  0E09  2E4A               	goto	l4957
  9729  0E0A                     u4520:
  9730  0E0A                     l4943:
  9731                           
  9732                           ;car_black_box_def.c: 304:     {;car_black_box_def.c: 305:         npasswd[0] = '\0';
  9733  0E0A  1683               	bsf	3,5	;RP0=1, select bank1
  9734  0E0B  1303               	bcf	3,6	;RP1=0, select bank1
  9735  0E0C  01C1               	clrf	change_password@npasswd^(0+128)
  9736                           
  9737                           ;car_black_box_def.c: 306:         npasswd[1] = '\0';
  9738  0E0D  01C2               	clrf	(change_password@npasswd^(0+128)+1)
  9739                           
  9740                           ;car_black_box_def.c: 307:         npasswd[2] = '\0';
  9741  0E0E  01C3               	clrf	(change_password@npasswd^(0+128)+2)
  9742                           
  9743                           ;car_black_box_def.c: 308:         npasswd[3] = '\0';
  9744  0E0F  01C4               	clrf	(change_password@npasswd^(0+128)+3)
  9745                           
  9746                           ;car_black_box_def.c: 310:         re_npasswd[0] = '\0';
  9747  0E10  01BD               	clrf	change_password@re_npasswd^(0+128)
  9748                           
  9749                           ;car_black_box_def.c: 311:         re_npasswd[1] = '\0';
  9750  0E11  01BE               	clrf	(change_password@re_npasswd^(0+128)+1)
  9751                           
  9752                           ;car_black_box_def.c: 312:         re_npasswd[2] = '\0';
  9753  0E12  01BF               	clrf	(change_password@re_npasswd^(0+128)+2)
  9754                           
  9755                           ;car_black_box_def.c: 313:         re_npasswd[3] = '\0';
  9756  0E13  01C0               	clrf	(change_password@re_npasswd^(0+128)+3)
  9757                           
  9758                           ;car_black_box_def.c: 315:         i = 0;
  9759  0E14  1283               	bcf	3,5	;RP0=0, select bank0
  9760  0E15  1303               	bcf	3,6	;RP1=0, select bank0
  9761  0E16  01C9               	clrf	change_password@i
  9762                           
  9763                           ;car_black_box_def.c: 316:         j = 0;
  9764  0E17  01C8               	clrf	change_password@j
  9765  0E18                     l4945:
  9766                           
  9767                           ;car_black_box_def.c: 317:         key = 0x3F;
  9768  0E18  303F               	movlw	63
  9769  0E19  00B1               	movwf	??_change_password
  9770  0E1A  0831               	movf	??_change_password,w
  9771  0E1B  00B0               	movwf	change_password@key
  9772  0E1C                     l4947:
  9773                           
  9774                           ;car_black_box_def.c: 318:         clear_screen();
  9775  0E1C  160A  158A  2749  120A  158A  	fcall	_clear_screen
  9776  0E21                     l4949:
  9777                           
  9778                           ;car_black_box_def.c: 319:         clcd_print(" ENTER PASSWORD ", (0x80 + 0));
  9779  0E21  3069               	movlw	low (STR_9| (0+32768))
  9780  0E22  1283               	bcf	3,5	;RP0=0, select bank0
  9781  0E23  1303               	bcf	3,6	;RP1=0, select bank0
  9782  0E24  00A1               	movwf	clcd_print@str
  9783  0E25  3090               	movlw	high (STR_9| (0+32768))
  9784  0E26  00A2               	movwf	clcd_print@str+1
  9785  0E27  3080               	movlw	128
  9786  0E28  00B1               	movwf	??_change_password
  9787  0E29  0831               	movf	??_change_password,w
  9788  0E2A  00A3               	movwf	clcd_print@addr
  9789  0E2B  160A  118A  22B1  120A  158A  	fcall	_clcd_print
  9790  0E30                     l4951:
  9791                           
  9792                           ;car_black_box_def.c: 320:         clcd_putch(' ', (0xC0 + 5));
  9793  0E30  30C5               	movlw	197
  9794  0E31  1283               	bcf	3,5	;RP0=0, select bank0
  9795  0E32  1303               	bcf	3,6	;RP1=0, select bank0
  9796  0E33  00B1               	movwf	??_change_password
  9797  0E34  0831               	movf	??_change_password,w
  9798  0E35  00AE               	movwf	clcd_putch@addr
  9799  0E36  3020               	movlw	32
  9800  0E37  160A  158A  2782  120A  158A  	fcall	_clcd_putch
  9801  0E3C                     l4953:
  9802                           
  9803                           ;car_black_box_def.c: 321:         clcd_write(0x0F, 0);
  9804  0E3C  01F4               	clrf	clcd_write@mode
  9805  0E3D  300F               	movlw	15
  9806  0E3E  160A  118A  2382  120A  158A  	fcall	_clcd_write
  9807  0E43                     l4955:
  9808                           
  9809                           ;car_black_box_def.c: 322:         _delay((unsigned long)((100)*(20000000/4000000.0)));
  9810  0E43  30A5               	movlw	165
  9811  0E44  1283               	bcf	3,5	;RP0=0, select bank0
  9812  0E45  1303               	bcf	3,6	;RP1=0, select bank0
  9813  0E46  00B1               	movwf	??_change_password
  9814  0E47                     u5487:
  9815  0E47  0BB1               	decfsz	??_change_password,f
  9816  0E48  2E47               	goto	u5487
  9817  0E49  2E4A               	nop2
  9818  0E4A                     l4957:
  9819                           
  9820                           ;car_black_box_def.c: 325:     if(key == 0x37 && i < 4)
  9821  0E4A  3037               	movlw	55
  9822  0E4B  1283               	bcf	3,5	;RP0=0, select bank0
  9823  0E4C  1303               	bcf	3,6	;RP1=0, select bank0
  9824  0E4D  0630               	xorwf	change_password@key,w
  9825  0E4E  1D03               	btfss	3,2
  9826  0E4F  2E51               	goto	u4531
  9827  0E50  2E52               	goto	u4530
  9828  0E51                     u4531:
  9829  0E51  2E93               	goto	l4977
  9830  0E52                     u4530:
  9831  0E52                     l4959:
  9832  0E52  3004               	movlw	4
  9833  0E53  0249               	subwf	change_password@i,w
  9834  0E54  1803               	skipnc
  9835  0E55  2E57               	goto	u4541
  9836  0E56  2E58               	goto	u4540
  9837  0E57                     u4541:
  9838  0E57  2E93               	goto	l4977
  9839  0E58                     u4540:
  9840  0E58                     l4961:
  9841                           
  9842                           ;car_black_box_def.c: 326:     {;car_black_box_def.c: 327:         npasswd[i] = '1';
  9843  0E58  3031               	movlw	49
  9844  0E59  00B1               	movwf	??_change_password
  9845  0E5A  0849               	movf	change_password@i,w
  9846  0E5B  3EC1               	addlw	(low (change_password@npasswd| 0))& (0+255)
  9847  0E5C  0084               	movwf	4
  9848  0E5D  0831               	movf	??_change_password,w
  9849  0E5E  1383               	bcf	3,7	;select IRP bank1
  9850  0E5F  0080               	movwf	0
  9851  0E60                     l4963:
  9852                           
  9853                           ;car_black_box_def.c: 328:         i++;
  9854  0E60  3001               	movlw	1
  9855  0E61  00B1               	movwf	??_change_password
  9856  0E62  0831               	movf	??_change_password,w
  9857  0E63  07C9               	addwf	change_password@i,f
  9858  0E64                     l4965:
  9859                           
  9860                           ;car_black_box_def.c: 329:         clcd_putch('*', (0xC0 + 5+i));
  9861  0E64  0849               	movf	change_password@i,w
  9862  0E65  3EC5               	addlw	197
  9863  0E66  00B1               	movwf	??_change_password
  9864  0E67  0831               	movf	??_change_password,w
  9865  0E68  00AE               	movwf	clcd_putch@addr
  9866  0E69  302A               	movlw	42
  9867  0E6A  160A  158A  2782  120A  158A  	fcall	_clcd_putch
  9868  0E6F                     l4967:
  9869                           
  9870                           ;car_black_box_def.c: 330:         if(i == 4)
  9871  0E6F  3004               	movlw	4
  9872  0E70  1283               	bcf	3,5	;RP0=0, select bank0
  9873  0E71  1303               	bcf	3,6	;RP1=0, select bank0
  9874  0E72  0649               	xorwf	change_password@i,w
  9875  0E73  1D03               	btfss	3,2
  9876  0E74  2E76               	goto	u4551
  9877  0E75  2E77               	goto	u4550
  9878  0E76                     u4551:
  9879  0E76  2ED6               	goto	l4997
  9880  0E77                     u4550:
  9881  0E77                     l4969:
  9882                           
  9883                           ;car_black_box_def.c: 331:         {;car_black_box_def.c: 332:             key = 0x3F;
  9884  0E77  303F               	movlw	63
  9885  0E78  00B1               	movwf	??_change_password
  9886  0E79  0831               	movf	??_change_password,w
  9887  0E7A  00B0               	movwf	change_password@key
  9888  0E7B                     l4971:
  9889                           
  9890                           ;car_black_box_def.c: 333:             clear_screen();
  9891  0E7B  160A  158A  2749  120A  158A  	fcall	_clear_screen
  9892  0E80                     l4973:
  9893                           
  9894                           ;car_black_box_def.c: 334:             clcd_write(0x0C, 0);
  9895  0E80  01F4               	clrf	clcd_write@mode
  9896  0E81  300C               	movlw	12
  9897  0E82  160A  118A  2382  120A  158A  	fcall	_clcd_write
  9898                           
  9899                           ;car_black_box_def.c: 335:             _delay((unsigned long)((100)*(20000000/4000000.0)
      +                          ));
  9900  0E87  30A5               	movlw	165
  9901  0E88  1283               	bcf	3,5	;RP0=0, select bank0
  9902  0E89  1303               	bcf	3,6	;RP1=0, select bank0
  9903  0E8A  00B1               	movwf	??_change_password
  9904  0E8B                     u5497:
  9905  0E8B  0BB1               	decfsz	??_change_password,f
  9906  0E8C  2E8B               	goto	u5497
  9907  0E8D  2E8E               	nop2
  9908  0E8E                     l4975:
  9909                           
  9910                           ;car_black_box_def.c: 336:             flag = 1;
  9911  0E8E  1283               	bcf	3,5	;RP0=0, select bank0
  9912  0E8F  1303               	bcf	3,6	;RP1=0, select bank0
  9913  0E90  01C7               	clrf	change_password@flag
  9914  0E91  0AC7               	incf	change_password@flag,f
  9915  0E92  2ED6               	goto	l4997
  9916  0E93                     l4977:
  9917  0E93  302F               	movlw	47
  9918  0E94  0630               	xorwf	change_password@key,w
  9919  0E95  1D03               	btfss	3,2
  9920  0E96  2E98               	goto	u4561
  9921  0E97  2E99               	goto	u4560
  9922  0E98                     u4561:
  9923  0E98  2ED6               	goto	l4997
  9924  0E99                     u4560:
  9925  0E99                     l4979:
  9926  0E99  3004               	movlw	4
  9927  0E9A  0249               	subwf	change_password@i,w
  9928  0E9B  1803               	skipnc
  9929  0E9C  2E9E               	goto	u4571
  9930  0E9D  2E9F               	goto	u4570
  9931  0E9E                     u4571:
  9932  0E9E  2ED6               	goto	l4997
  9933  0E9F                     u4570:
  9934  0E9F                     l4981:
  9935                           
  9936                           ;car_black_box_def.c: 340:     {;car_black_box_def.c: 341:         npasswd[i] = '0';
  9937  0E9F  3030               	movlw	48
  9938  0EA0  00B1               	movwf	??_change_password
  9939  0EA1  0849               	movf	change_password@i,w
  9940  0EA2  3EC1               	addlw	(low (change_password@npasswd| 0))& (0+255)
  9941  0EA3  0084               	movwf	4
  9942  0EA4  0831               	movf	??_change_password,w
  9943  0EA5  1383               	bcf	3,7	;select IRP bank1
  9944  0EA6  0080               	movwf	0
  9945  0EA7                     l4983:
  9946                           
  9947                           ;car_black_box_def.c: 342:         i++;
  9948  0EA7  3001               	movlw	1
  9949  0EA8  00B1               	movwf	??_change_password
  9950  0EA9  0831               	movf	??_change_password,w
  9951  0EAA  07C9               	addwf	change_password@i,f
  9952  0EAB                     l4985:
  9953                           
  9954                           ;car_black_box_def.c: 343:         clcd_putch('*', (0xC0 + 5+i));
  9955  0EAB  0849               	movf	change_password@i,w
  9956  0EAC  3EC5               	addlw	197
  9957  0EAD  00B1               	movwf	??_change_password
  9958  0EAE  0831               	movf	??_change_password,w
  9959  0EAF  00AE               	movwf	clcd_putch@addr
  9960  0EB0  302A               	movlw	42
  9961  0EB1  160A  158A  2782  120A  158A  	fcall	_clcd_putch
  9962  0EB6                     l4987:
  9963                           
  9964                           ;car_black_box_def.c: 344:         if(i == 4)
  9965  0EB6  3004               	movlw	4
  9966  0EB7  1283               	bcf	3,5	;RP0=0, select bank0
  9967  0EB8  1303               	bcf	3,6	;RP1=0, select bank0
  9968  0EB9  0649               	xorwf	change_password@i,w
  9969  0EBA  1D03               	btfss	3,2
  9970  0EBB  2EBD               	goto	u4581
  9971  0EBC  2EBE               	goto	u4580
  9972  0EBD                     u4581:
  9973  0EBD  2ED6               	goto	l4997
  9974  0EBE                     u4580:
  9975  0EBE                     l4989:
  9976                           
  9977                           ;car_black_box_def.c: 345:         {;car_black_box_def.c: 346:             key = 0x3F;
  9978  0EBE  303F               	movlw	63
  9979  0EBF  00B1               	movwf	??_change_password
  9980  0EC0  0831               	movf	??_change_password,w
  9981  0EC1  00B0               	movwf	change_password@key
  9982  0EC2                     l4991:
  9983                           
  9984                           ;car_black_box_def.c: 347:             clear_screen();
  9985  0EC2  160A  158A  2749  120A  158A  	fcall	_clear_screen
  9986  0EC7                     l4993:
  9987                           
  9988                           ;car_black_box_def.c: 348:             clcd_write(0x0C, 0);
  9989  0EC7  01F4               	clrf	clcd_write@mode
  9990  0EC8  300C               	movlw	12
  9991  0EC9  160A  118A  2382  120A  158A  	fcall	_clcd_write
  9992                           
  9993                           ;car_black_box_def.c: 349:             _delay((unsigned long)((100)*(20000000/4000000.0)
      +                          ));
  9994  0ECE  30A5               	movlw	165
  9995  0ECF  1283               	bcf	3,5	;RP0=0, select bank0
  9996  0ED0  1303               	bcf	3,6	;RP1=0, select bank0
  9997  0ED1  00B1               	movwf	??_change_password
  9998  0ED2                     u5507:
  9999  0ED2  0BB1               	decfsz	??_change_password,f
 10000  0ED3  2ED2               	goto	u5507
 10001  0ED4  2ED5               	nop2
 10002  0ED5  2E8E               	goto	l4975
 10003  0ED6                     l4997:
 10004                           
 10005                           ;car_black_box_def.c: 353:     if(i == 4)
 10006  0ED6  3004               	movlw	4
 10007  0ED7  0649               	xorwf	change_password@i,w
 10008  0ED8  1D03               	btfss	3,2
 10009  0ED9  2EDB               	goto	u4591
 10010  0EDA  2EDC               	goto	u4590
 10011  0EDB                     u4591:
 10012  0EDB  2FFE               	goto	l5073
 10013  0EDC                     u4590:
 10014  0EDC                     l4999:
 10015                           
 10016                           ;car_black_box_def.c: 354:     {;car_black_box_def.c: 355:         if(flag == 1)
 10017  0EDC  0347               	decf	change_password@flag,w
 10018  0EDD  1D03               	btfss	3,2
 10019  0EDE  2EE0               	goto	u4601
 10020  0EDF  2EE1               	goto	u4600
 10021  0EE0                     u4601:
 10022  0EE0  2F09               	goto	l5011
 10023  0EE1                     u4600:
 10024  0EE1                     l5001:
 10025                           
 10026                           ;car_black_box_def.c: 356:         {;car_black_box_def.c: 357:             flag = 0;
 10027  0EE1  01C7               	clrf	change_password@flag
 10028  0EE2                     l5003:
 10029                           
 10030                           ;car_black_box_def.c: 358:             clcd_print("RE-ENTER PASSWORD ", (0x80 + 0));
 10031  0EE2  3000               	movlw	low (STR_25| (0+32768))
 10032  0EE3  00A1               	movwf	clcd_print@str
 10033  0EE4  3090               	movlw	high (STR_25| (0+32768))
 10034  0EE5  00A2               	movwf	clcd_print@str+1
 10035  0EE6  3080               	movlw	128
 10036  0EE7  00B1               	movwf	??_change_password
 10037  0EE8  0831               	movf	??_change_password,w
 10038  0EE9  00A3               	movwf	clcd_print@addr
 10039  0EEA  160A  118A  22B1  120A  158A  	fcall	_clcd_print
 10040  0EEF                     l5005:
 10041                           
 10042                           ;car_black_box_def.c: 359:             clcd_putch(' ', (0xC0 + 5));
 10043  0EEF  30C5               	movlw	197
 10044  0EF0  1283               	bcf	3,5	;RP0=0, select bank0
 10045  0EF1  1303               	bcf	3,6	;RP1=0, select bank0
 10046  0EF2  00B1               	movwf	??_change_password
 10047  0EF3  0831               	movf	??_change_password,w
 10048  0EF4  00AE               	movwf	clcd_putch@addr
 10049  0EF5  3020               	movlw	32
 10050  0EF6  160A  158A  2782  120A  158A  	fcall	_clcd_putch
 10051  0EFB                     l5007:
 10052                           
 10053                           ;car_black_box_def.c: 360:             clcd_write(0x0F, 0);
 10054  0EFB  01F4               	clrf	clcd_write@mode
 10055  0EFC  300F               	movlw	15
 10056  0EFD  160A  118A  2382  120A  158A  	fcall	_clcd_write
 10057  0F02                     l5009:
 10058                           
 10059                           ;car_black_box_def.c: 361:             _delay((unsigned long)((100)*(20000000/4000000.0)
      +                          ));
 10060  0F02  30A5               	movlw	165
 10061  0F03  1283               	bcf	3,5	;RP0=0, select bank0
 10062  0F04  1303               	bcf	3,6	;RP1=0, select bank0
 10063  0F05  00B1               	movwf	??_change_password
 10064  0F06                     u5517:
 10065  0F06  0BB1               	decfsz	??_change_password,f
 10066  0F07  2F06               	goto	u5517
 10067  0F08  2F09               	nop2
 10068  0F09                     l5011:
 10069                           
 10070                           ;car_black_box_def.c: 363:         if(key == 0x37 && j < 4)
 10071  0F09  3037               	movlw	55
 10072  0F0A  1283               	bcf	3,5	;RP0=0, select bank0
 10073  0F0B  1303               	bcf	3,6	;RP1=0, select bank0
 10074  0F0C  0630               	xorwf	change_password@key,w
 10075  0F0D  1D03               	btfss	3,2
 10076  0F0E  2F10               	goto	u4611
 10077  0F0F  2F11               	goto	u4610
 10078  0F10                     u4611:
 10079  0F10  2F2F               	goto	l5021
 10080  0F11                     u4610:
 10081  0F11                     l5013:
 10082  0F11  3004               	movlw	4
 10083  0F12  0248               	subwf	change_password@j,w
 10084  0F13  1803               	skipnc
 10085  0F14  2F16               	goto	u4621
 10086  0F15  2F17               	goto	u4620
 10087  0F16                     u4621:
 10088  0F16  2F2F               	goto	l5021
 10089  0F17                     u4620:
 10090  0F17                     l5015:
 10091                           
 10092                           ;car_black_box_def.c: 364:         {;car_black_box_def.c: 365:             re_npasswd[j]
      +                           = '1';
 10093  0F17  3031               	movlw	49
 10094  0F18  00B1               	movwf	??_change_password
 10095  0F19  0848               	movf	change_password@j,w
 10096  0F1A  3EBD               	addlw	(low (change_password@re_npasswd| 0))& (0+255)
 10097  0F1B  0084               	movwf	4
 10098  0F1C  0831               	movf	??_change_password,w
 10099  0F1D  1383               	bcf	3,7	;select IRP bank1
 10100  0F1E  0080               	movwf	0
 10101  0F1F                     l5017:
 10102                           
 10103                           ;car_black_box_def.c: 366:             j++;
 10104  0F1F  3001               	movlw	1
 10105  0F20  00B1               	movwf	??_change_password
 10106  0F21  0831               	movf	??_change_password,w
 10107  0F22  07C8               	addwf	change_password@j,f
 10108  0F23                     l5019:
 10109                           
 10110                           ;car_black_box_def.c: 367:             clcd_putch('*', (0xC0 + 5+j));
 10111  0F23  0848               	movf	change_password@j,w
 10112  0F24  3EC5               	addlw	197
 10113  0F25  00B1               	movwf	??_change_password
 10114  0F26  0831               	movf	??_change_password,w
 10115  0F27  00AE               	movwf	clcd_putch@addr
 10116  0F28  302A               	movlw	42
 10117  0F29  160A  158A  2782  120A  158A  	fcall	_clcd_putch
 10118                           
 10119                           ;car_black_box_def.c: 368:         }
 10120  0F2E  2F52               	goto	l5031
 10121  0F2F                     l5021:
 10122  0F2F  302F               	movlw	47
 10123  0F30  0630               	xorwf	change_password@key,w
 10124  0F31  1D03               	btfss	3,2
 10125  0F32  2F34               	goto	u4631
 10126  0F33  2F35               	goto	u4630
 10127  0F34                     u4631:
 10128  0F34  2F52               	goto	l5031
 10129  0F35                     u4630:
 10130  0F35                     l5023:
 10131  0F35  3004               	movlw	4
 10132  0F36  0248               	subwf	change_password@j,w
 10133  0F37  1803               	skipnc
 10134  0F38  2F3A               	goto	u4641
 10135  0F39  2F3B               	goto	u4640
 10136  0F3A                     u4641:
 10137  0F3A  2F52               	goto	l5031
 10138  0F3B                     u4640:
 10139  0F3B                     l5025:
 10140                           
 10141                           ;car_black_box_def.c: 370:         {;car_black_box_def.c: 371:             re_npasswd[j]
      +                           = '0';
 10142  0F3B  3030               	movlw	48
 10143  0F3C  00B1               	movwf	??_change_password
 10144  0F3D  0848               	movf	change_password@j,w
 10145  0F3E  3EBD               	addlw	(low (change_password@re_npasswd| 0))& (0+255)
 10146  0F3F  0084               	movwf	4
 10147  0F40  0831               	movf	??_change_password,w
 10148  0F41  1383               	bcf	3,7	;select IRP bank1
 10149  0F42  0080               	movwf	0
 10150  0F43                     l5027:
 10151                           
 10152                           ;car_black_box_def.c: 372:             j++;
 10153  0F43  3001               	movlw	1
 10154  0F44  00B1               	movwf	??_change_password
 10155  0F45  0831               	movf	??_change_password,w
 10156  0F46  07C8               	addwf	change_password@j,f
 10157  0F47                     l5029:
 10158                           
 10159                           ;car_black_box_def.c: 373:             clcd_putch('*', (0xC0 + 5+j));
 10160  0F47  0848               	movf	change_password@j,w
 10161  0F48  3EC5               	addlw	197
 10162  0F49  00B1               	movwf	??_change_password
 10163  0F4A  0831               	movf	??_change_password,w
 10164  0F4B  00AE               	movwf	clcd_putch@addr
 10165  0F4C  302A               	movlw	42
 10166  0F4D  160A  158A  2782  120A  158A  	fcall	_clcd_putch
 10167  0F52                     l5031:
 10168                           
 10169                           ;car_black_box_def.c: 376:         if(j == 4)
 10170  0F52  3004               	movlw	4
 10171  0F53  1283               	bcf	3,5	;RP0=0, select bank0
 10172  0F54  1303               	bcf	3,6	;RP1=0, select bank0
 10173  0F55  0648               	xorwf	change_password@j,w
 10174  0F56  1D03               	btfss	3,2
 10175  0F57  2F59               	goto	u4651
 10176  0F58  2F5A               	goto	u4650
 10177  0F59                     u4651:
 10178  0F59  2FFE               	goto	l5073
 10179  0F5A                     u4650:
 10180  0F5A                     l5033:
 10181                           
 10182                           ;car_black_box_def.c: 377:         {;car_black_box_def.c: 378:             if(strncmp(np
      +                          asswd, re_npasswd, 4) == 0)
 10183  0F5A  30BD               	movlw	(low (change_password@re_npasswd| 0))& (0+255)
 10184  0F5B  00B1               	movwf	??_change_password
 10185  0F5C  0831               	movf	??_change_password,w
 10186  0F5D  00F4               	movwf	strncmp@s2
 10187  0F5E  3004               	movlw	4
 10188  0F5F  00F5               	movwf	strncmp@len
 10189  0F60  3000               	movlw	0
 10190  0F61  00F6               	movwf	strncmp@len+1
 10191  0F62  30C1               	movlw	(low (change_password@npasswd| 0))& (0+255)
 10192  0F63  160A  118A  242C  120A  158A  	fcall	_strncmp
 10193  0F68  0874               	movf	?_strncmp,w
 10194  0F69  0475               	iorwf	?_strncmp+1,w
 10195  0F6A  1D03               	btfss	3,2
 10196  0F6B  2F6D               	goto	u4661
 10197  0F6C  2F6E               	goto	u4660
 10198  0F6D                     u4661:
 10199  0F6D  2FBD               	goto	l5059
 10200  0F6E                     u4660:
 10201  0F6E                     l5035:
 10202                           
 10203                           ;car_black_box_def.c: 379:             {;car_black_box_def.c: 381:                 clear
      +                          _screen();
 10204  0F6E  160A  158A  2749  120A  158A  	fcall	_clear_screen
 10205                           
 10206                           ;car_black_box_def.c: 382:                 clcd_write(0x0C, 0);
 10207  0F73  01F4               	clrf	clcd_write@mode
 10208  0F74  300C               	movlw	12
 10209  0F75  160A  118A  2382  120A  158A  	fcall	_clcd_write
 10210  0F7A                     l5037:
 10211                           
 10212                           ;car_black_box_def.c: 383:                 _delay((unsigned long)((100)*(20000000/400000
      +                          0.0)));
 10213  0F7A  30A5               	movlw	165
 10214  0F7B  1283               	bcf	3,5	;RP0=0, select bank0
 10215  0F7C  1303               	bcf	3,6	;RP1=0, select bank0
 10216  0F7D  00B1               	movwf	??_change_password
 10217  0F7E                     u5527:
 10218  0F7E  0BB1               	decfsz	??_change_password,f
 10219  0F7F  2F7E               	goto	u5527
 10220  0F80  2F81               	nop2
 10221  0F81                     l5039:
 10222                           
 10223                           ;car_black_box_def.c: 384:                 clcd_print("New Password set", (0x80 + 0));
 10224  0F81  3058               	movlw	low (STR_26| (0+32768))
 10225  0F82  1283               	bcf	3,5	;RP0=0, select bank0
 10226  0F83  1303               	bcf	3,6	;RP1=0, select bank0
 10227  0F84  00A1               	movwf	clcd_print@str
 10228  0F85  3090               	movlw	high (STR_26| (0+32768))
 10229  0F86  00A2               	movwf	clcd_print@str+1
 10230  0F87  3080               	movlw	128
 10231  0F88  00B1               	movwf	??_change_password
 10232  0F89  0831               	movf	??_change_password,w
 10233  0F8A  00A3               	movwf	clcd_print@addr
 10234  0F8B  160A  118A  22B1  120A  158A  	fcall	_clcd_print
 10235  0F90                     l5041:
 10236                           
 10237                           ;car_black_box_def.c: 385:                 for(unsigned char k = 0; k < 4; k++)
 10238  0F90  1283               	bcf	3,5	;RP0=0, select bank0
 10239  0F91  1303               	bcf	3,6	;RP1=0, select bank0
 10240  0F92  01B5               	clrf	change_password@k
 10241  0F93                     l5047:
 10242                           
 10243                           ;car_black_box_def.c: 386:                 {;car_black_box_def.c: 387:                  
      +                             byte_write_EEPROM(k, npasswd[k]);
 10244  0F93  0835               	movf	change_password@k,w
 10245  0F94  3EC1               	addlw	(low (change_password@npasswd| 0))& (0+255)
 10246  0F95  0084               	movwf	4
 10247  0F96  1383               	bcf	3,7	;select IRP bank1
 10248  0F97  0800               	movf	0,w
 10249  0F98  00B1               	movwf	??_change_password
 10250  0F99  0831               	movf	??_change_password,w
 10251  0F9A  00F5               	movwf	byte_write_EEPROM@data
 10252  0F9B  0835               	movf	change_password@k,w
 10253  0F9C  160A  158A  27E2  120A  158A  	fcall	_byte_write_EEPROM
 10254  0FA1                     l5049:
 10255                           
 10256                           ;car_black_box_def.c: 388:                 }
 10257  0FA1  3001               	movlw	1
 10258  0FA2  1283               	bcf	3,5	;RP0=0, select bank0
 10259  0FA3  1303               	bcf	3,6	;RP1=0, select bank0
 10260  0FA4  00B1               	movwf	??_change_password
 10261  0FA5  0831               	movf	??_change_password,w
 10262  0FA6  07B5               	addwf	change_password@k,f
 10263  0FA7                     l5051:
 10264  0FA7  3004               	movlw	4
 10265  0FA8  0235               	subwf	change_password@k,w
 10266  0FA9  1C03               	skipc
 10267  0FAA  2FAC               	goto	u4671
 10268  0FAB  2FAD               	goto	u4670
 10269  0FAC                     u4671:
 10270  0FAC  2F93               	goto	l5047
 10271  0FAD                     u4670:
 10272  0FAD                     l5053:
 10273                           
 10274                           ;car_black_box_def.c: 389:                 _delay((unsigned long)((3000)*(20000000/4000.
      +                          0)));
 10275  0FAD  304D               	movlw	77
 10276  0FAE  1283               	bcf	3,5	;RP0=0, select bank0
 10277  0FAF  1303               	bcf	3,6	;RP1=0, select bank0
 10278  0FB0  00B3               	movwf	??_change_password+2
 10279  0FB1  3019               	movlw	25
 10280  0FB2  00B2               	movwf	??_change_password+1
 10281  0FB3  304F               	movlw	79
 10282  0FB4  00B1               	movwf	??_change_password
 10283  0FB5                     u5537:
 10284  0FB5  0BB1               	decfsz	??_change_password,f
 10285  0FB6  2FB5               	goto	u5537
 10286  0FB7  0BB2               	decfsz	??_change_password+1,f
 10287  0FB8  2FB5               	goto	u5537
 10288  0FB9  0BB3               	decfsz	??_change_password+2,f
 10289  0FBA  2FB5               	goto	u5537
 10290                           
 10291                           ;car_black_box_def.c: 390:                 return 0x23;
 10292  0FBB  3023               	movlw	35
 10293  0FBC  2FFF               	goto	l442
 10294  0FBD                     l5059:
 10295                           
 10296                           ;car_black_box_def.c: 393:             {;car_black_box_def.c: 395:                 clear
      +                          _screen();
 10297  0FBD  160A  158A  2749  120A  158A  	fcall	_clear_screen
 10298                           
 10299                           ;car_black_box_def.c: 396:                 clcd_write(0x0C, 0);
 10300  0FC2  01F4               	clrf	clcd_write@mode
 10301  0FC3  300C               	movlw	12
 10302  0FC4  160A  118A  2382  120A  158A  	fcall	_clcd_write
 10303  0FC9                     l5061:
 10304                           
 10305                           ;car_black_box_def.c: 397:                 _delay((unsigned long)((100)*(20000000/400000
      +                          0.0)));
 10306  0FC9  30A5               	movlw	165
 10307  0FCA  1283               	bcf	3,5	;RP0=0, select bank0
 10308  0FCB  1303               	bcf	3,6	;RP1=0, select bank0
 10309  0FCC  00B1               	movwf	??_change_password
 10310  0FCD                     u5547:
 10311  0FCD  0BB1               	decfsz	??_change_password,f
 10312  0FCE  2FCD               	goto	u5547
 10313  0FCF  2FD0               	nop2
 10314  0FD0                     l5063:
 10315                           
 10316                           ;car_black_box_def.c: 398:                 clcd_print(" Both Password ", (0x80 + 0));
 10317  0FD0  307A               	movlw	low (STR_27| (0+32768))
 10318  0FD1  1283               	bcf	3,5	;RP0=0, select bank0
 10319  0FD2  1303               	bcf	3,6	;RP1=0, select bank0
 10320  0FD3  00A1               	movwf	clcd_print@str
 10321  0FD4  3090               	movlw	high (STR_27| (0+32768))
 10322  0FD5  00A2               	movwf	clcd_print@str+1
 10323  0FD6  3080               	movlw	128
 10324  0FD7  00B1               	movwf	??_change_password
 10325  0FD8  0831               	movf	??_change_password,w
 10326  0FD9  00A3               	movwf	clcd_print@addr
 10327  0FDA  160A  118A  22B1  120A  158A  	fcall	_clcd_print
 10328  0FDF                     l5065:
 10329                           
 10330                           ;car_black_box_def.c: 399:                 clcd_print("  Not Matched", (0xC0 + 0));
 10331  0FDF  30E8               	movlw	low (STR_28| (0+32768))
 10332  0FE0  1283               	bcf	3,5	;RP0=0, select bank0
 10333  0FE1  1303               	bcf	3,6	;RP1=0, select bank0
 10334  0FE2  00A1               	movwf	clcd_print@str
 10335  0FE3  3090               	movlw	high (STR_28| (0+32768))
 10336  0FE4  00A2               	movwf	clcd_print@str+1
 10337  0FE5  30C0               	movlw	192
 10338  0FE6  00B1               	movwf	??_change_password
 10339  0FE7  0831               	movf	??_change_password,w
 10340  0FE8  00A3               	movwf	clcd_print@addr
 10341  0FE9  160A  118A  22B1  120A  158A  	fcall	_clcd_print
 10342  0FEE                     l5067:
 10343                           
 10344                           ;car_black_box_def.c: 400:                 _delay((unsigned long)((3000)*(20000000/4000.
      +                          0)));
 10345  0FEE  304D               	movlw	77
 10346  0FEF  1283               	bcf	3,5	;RP0=0, select bank0
 10347  0FF0  1303               	bcf	3,6	;RP1=0, select bank0
 10348  0FF1  00B3               	movwf	??_change_password+2
 10349  0FF2  3019               	movlw	25
 10350  0FF3  00B2               	movwf	??_change_password+1
 10351  0FF4  304F               	movlw	79
 10352  0FF5  00B1               	movwf	??_change_password
 10353  0FF6                     u5557:
 10354  0FF6  0BB1               	decfsz	??_change_password,f
 10355  0FF7  2FF6               	goto	u5557
 10356  0FF8  0BB2               	decfsz	??_change_password+1,f
 10357  0FF9  2FF6               	goto	u5557
 10358  0FFA  0BB3               	decfsz	??_change_password+2,f
 10359  0FFB  2FF6               	goto	u5557
 10360  0FFC                     l5069:
 10361                           
 10362                           ;car_black_box_def.c: 401:                 return 0x24;
 10363  0FFC  3024               	movlw	36
 10364  0FFD  2FFF               	goto	l442
 10365  0FFE                     l5073:
 10366                           
 10367                           ;car_black_box_def.c: 405:     return 0x30;
 10368  0FFE  3030               	movlw	48
 10369  0FFF                     l442:
 10370  0FFF  0008               	return
 10371  1000                     __end_of_change_password:
 10372                           
 10373                           	psect	text38
 10374  142C                     __ptext38:	
 10375 ;; *************** function _strncmp *****************
 10376 ;; Defined at:
 10377 ;;		line 4 in file "C:\Program Files\Microchip\xc8\v2.32\pic\sources\c90\common\strncmp.c"
 10378 ;; Parameters:    Size  Location     Type
 10379 ;;  s1              1    wreg     PTR const unsigned char 
 10380 ;;		 -> change_password@npasswd(4), login@npasswd(4), 
 10381 ;;  s2              1    4[COMMON] PTR const unsigned char 
 10382 ;;		 -> change_password@re_npasswd(4), login@spasswd(4), 
 10383 ;;  len             2    5[COMMON] unsigned int 
 10384 ;; Auto vars:     Size  Location     Type
 10385 ;;  s1              1    2[BANK0 ] PTR const unsigned char 
 10386 ;;		 -> change_password@npasswd(4), login@npasswd(4), 
 10387 ;; Return value:  Size  Location     Type
 10388 ;;                  2    4[COMMON] int 
 10389 ;; Registers used:
 10390 ;;		wreg, fsr0l, fsr0h, status,2, status,0
 10391 ;; Tracked objects:
 10392 ;;		On entry : 0/0
 10393 ;;		On exit  : 0/0
 10394 ;;		Unchanged: 0/0
 10395 ;; Data sizes:     COMMON   BANK0   BANK1   BANK3   BANK2
 10396 ;;      Params:         3       0       0       0       0
 10397 ;;      Locals:         0       1       0       0       0
 10398 ;;      Temps:          0       2       0       0       0
 10399 ;;      Totals:         3       3       0       0       0
 10400 ;;Total ram usage:        6 bytes
 10401 ;; Hardware stack levels used: 1
 10402 ;; Hardware stack levels required when called: 1
 10403 ;; This function calls:
 10404 ;;		Nothing
 10405 ;; This function is called by:
 10406 ;;		_login
 10407 ;;		_change_password
 10408 ;; This function uses a non-reentrant model
 10409 ;;
 10410                           
 10411                           
 10412                           ;psect for function _strncmp
 10413  142C                     _strncmp:
 10414                           
 10415                           ;incstack = 0
 10416                           ; Regs used in _strncmp: [wreg-fsr0h+status,2+status,0]
 10417                           ;strncmp@s1 stored from wreg
 10418  142C  1283               	bcf	3,5	;RP0=0, select bank0
 10419  142D  1303               	bcf	3,6	;RP1=0, select bank0
 10420  142E  00A2               	movwf	strncmp@s1
 10421  142F                     l4325:
 10422  142F  2C5B               	goto	l1113
 10423  1430                     l4327:
 10424  1430  0822               	movf	strncmp@s1,w
 10425  1431  0084               	movwf	4
 10426  1432  1383               	bcf	3,7	;select IRP bank0
 10427  1433  0800               	movf	0,w
 10428  1434  1903               	btfsc	3,2
 10429  1435  2C37               	goto	u3671
 10430  1436  2C38               	goto	u3670
 10431  1437                     u3671:
 10432  1437  2C44               	goto	l4331
 10433  1438                     u3670:
 10434  1438                     l4329:
 10435  1438  0874               	movf	strncmp@s2,w
 10436  1439  0084               	movwf	4
 10437  143A  0800               	movf	0,w
 10438  143B  00A0               	movwf	??_strncmp
 10439  143C  0822               	movf	strncmp@s1,w
 10440  143D  0084               	movwf	4
 10441  143E  0800               	movf	0,w
 10442  143F  0620               	xorwf	??_strncmp,w
 10443  1440  1903               	skipnz
 10444  1441  2C43               	goto	u3681
 10445  1442  2C44               	goto	u3680
 10446  1443                     u3681:
 10447  1443  2C53               	goto	l4335
 10448  1444                     u3680:
 10449  1444                     l4331:
 10450  1444  0874               	movf	strncmp@s2,w
 10451  1445  0084               	movwf	4
 10452  1446  0800               	movf	0,w
 10453  1447  00A0               	movwf	??_strncmp
 10454  1448  0822               	movf	strncmp@s1,w
 10455  1449  0084               	movwf	4
 10456  144A  0800               	movf	0,w
 10457  144B  00A1               	movwf	??_strncmp+1
 10458  144C  0820               	movf	??_strncmp,w
 10459  144D  0221               	subwf	??_strncmp+1,w
 10460  144E  00F4               	movwf	?_strncmp
 10461  144F  01F5               	clrf	?_strncmp+1
 10462  1450  1C03               	skipc
 10463  1451  03F5               	decf	?_strncmp+1,f
 10464  1452  2C6B               	goto	l1118
 10465  1453                     l4335:
 10466  1453  3001               	movlw	1
 10467  1454  00A0               	movwf	??_strncmp
 10468  1455  0820               	movf	??_strncmp,w
 10469  1456  07A2               	addwf	strncmp@s1,f
 10470  1457  3001               	movlw	1
 10471  1458  00A0               	movwf	??_strncmp
 10472  1459  0820               	movf	??_strncmp,w
 10473  145A  07F4               	addwf	strncmp@s2,f
 10474  145B                     l1113:
 10475  145B  3001               	movlw	1
 10476  145C  02F5               	subwf	strncmp@len,f
 10477  145D  3000               	movlw	0
 10478  145E  1C03               	skipc
 10479  145F  03F6               	decf	strncmp@len+1,f
 10480  1460  02F6               	subwf	strncmp@len+1,f
 10481  1461  0A75               	incf	strncmp@len,w
 10482  1462  1D03               	skipz
 10483  1463  2C68               	goto	u3691
 10484  1464  0A76               	incf	strncmp@len+1,w
 10485  1465  1D03               	btfss	3,2
 10486  1466  2C68               	goto	u3691
 10487  1467  2C69               	goto	u3690
 10488  1468                     u3691:
 10489  1468  2C30               	goto	l4327
 10490  1469                     u3690:
 10491  1469                     l4337:
 10492  1469  01F4               	clrf	?_strncmp
 10493  146A  01F5               	clrf	?_strncmp+1
 10494  146B                     l1118:
 10495  146B  0008               	return
 10496  146C                     __end_of_strncmp:
 10497                           
 10498                           	psect	text39
 10499  1F49                     __ptext39:	
 10500 ;; *************** function _clear_screen *****************
 10501 ;; Defined at:
 10502 ;;		line 634 in file "car_black_box_def.c"
 10503 ;; Parameters:    Size  Location     Type
 10504 ;;		None
 10505 ;; Auto vars:     Size  Location     Type
 10506 ;;		None
 10507 ;; Return value:  Size  Location     Type
 10508 ;;                  1    wreg      void 
 10509 ;; Registers used:
 10510 ;;		wreg, status,2, status,0, pclath, cstack
 10511 ;; Tracked objects:
 10512 ;;		On entry : 0/0
 10513 ;;		On exit  : 0/0
 10514 ;;		Unchanged: 0/0
 10515 ;; Data sizes:     COMMON   BANK0   BANK1   BANK3   BANK2
 10516 ;;      Params:         0       0       0       0       0
 10517 ;;      Locals:         0       0       0       0       0
 10518 ;;      Temps:          0       2       0       0       0
 10519 ;;      Totals:         0       2       0       0       0
 10520 ;;Total ram usage:        2 bytes
 10521 ;; Hardware stack levels used: 1
 10522 ;; Hardware stack levels required when called: 2
 10523 ;; This function calls:
 10524 ;;		_clcd_write
 10525 ;; This function is called by:
 10526 ;;		_main
 10527 ;;		_login
 10528 ;;		_login_menu
 10529 ;;		_view_log
 10530 ;;		_change_password
 10531 ;;		_set_time
 10532 ;; This function uses a non-reentrant model
 10533 ;;
 10534                           
 10535                           
 10536                           ;psect for function _clear_screen
 10537  1F49                     _clear_screen:
 10538  1F49                     l4253:	
 10539                           ;incstack = 0
 10540                           ; Regs used in _clear_screen: [wreg+status,2+status,0+pclath+cstack]
 10541                           
 10542                           
 10543                           ;car_black_box_def.c: 636:     clcd_write(0x01, 0);
 10544  1F49  01F4               	clrf	clcd_write@mode
 10545  1F4A  3001               	movlw	1
 10546  1F4B  160A  118A  2382  160A  158A  	fcall	_clcd_write
 10547  1F50                     l4255:
 10548                           
 10549                           ;car_black_box_def.c: 637:     _delay((unsigned long)((500)*(20000000/4000000.0)));
 10550  1F50  3004               	movlw	4
 10551  1F51  1283               	bcf	3,5	;RP0=0, select bank0
 10552  1F52  1303               	bcf	3,6	;RP1=0, select bank0
 10553  1F53  00A2               	movwf	??_clear_screen+1
 10554  1F54  303D               	movlw	61
 10555  1F55  00A1               	movwf	??_clear_screen
 10556  1F56                     u5567:
 10557  1F56  0BA1               	decfsz	??_clear_screen,f
 10558  1F57  2F56               	goto	u5567
 10559  1F58  0BA2               	decfsz	??_clear_screen+1,f
 10560  1F59  2F56               	goto	u5567
 10561  1F5A                     l501:
 10562  1F5A  0008               	return
 10563  1F5B                     __end_of_clear_screen:
 10564                           
 10565                           	psect	text40
 10566  1F82                     __ptext40:	
 10567 ;; *************** function _clcd_putch *****************
 10568 ;; Defined at:
 10569 ;;		line 56 in file "clcd.c"
 10570 ;; Parameters:    Size  Location     Type
 10571 ;;  data            1    wreg     const unsigned char 
 10572 ;;  addr            1   14[BANK0 ] unsigned char 
 10573 ;; Auto vars:     Size  Location     Type
 10574 ;;  data            1   15[BANK0 ] const unsigned char 
 10575 ;; Return value:  Size  Location     Type
 10576 ;;                  1    wreg      void 
 10577 ;; Registers used:
 10578 ;;		wreg, status,2, status,0, pclath, cstack
 10579 ;; Tracked objects:
 10580 ;;		On entry : 0/0
 10581 ;;		On exit  : 0/0
 10582 ;;		Unchanged: 0/0
 10583 ;; Data sizes:     COMMON   BANK0   BANK1   BANK3   BANK2
 10584 ;;      Params:         0       1       0       0       0
 10585 ;;      Locals:         0       1       0       0       0
 10586 ;;      Temps:          0       0       0       0       0
 10587 ;;      Totals:         0       2       0       0       0
 10588 ;;Total ram usage:        2 bytes
 10589 ;; Hardware stack levels used: 1
 10590 ;; Hardware stack levels required when called: 2
 10591 ;; This function calls:
 10592 ;;		_clcd_write
 10593 ;; This function is called by:
 10594 ;;		_main
 10595 ;;		_display_time
 10596 ;;		_display_dash_screen
 10597 ;;		_login
 10598 ;;		_login_menu
 10599 ;;		_view_log
 10600 ;;		_change_password
 10601 ;;		_set_time
 10602 ;; This function uses a non-reentrant model
 10603 ;;
 10604                           
 10605                           
 10606                           ;psect for function _clcd_putch
 10607  1F82                     _clcd_putch:
 10608                           
 10609                           ;incstack = 0
 10610                           ; Regs used in _clcd_putch: [wreg+status,2+status,0+pclath+cstack]
 10611                           ;clcd_putch@data stored from wreg
 10612  1F82  1283               	bcf	3,5	;RP0=0, select bank0
 10613  1F83  1303               	bcf	3,6	;RP1=0, select bank0
 10614  1F84  00AF               	movwf	clcd_putch@data
 10615  1F85                     l4155:
 10616                           
 10617                           ;clcd.c: 56: void clcd_putch(const char data, unsigned char addr);clcd.c: 57: {;clcd.c: 
      +                          58:     clcd_write(addr, 0);
 10618  1F85  01F4               	clrf	clcd_write@mode
 10619  1F86  082E               	movf	clcd_putch@addr,w
 10620  1F87  160A  118A  2382  160A  158A  	fcall	_clcd_write
 10621                           
 10622                           ;clcd.c: 59:     clcd_write(data, 1);
 10623  1F8C  01F4               	clrf	clcd_write@mode
 10624  1F8D  0AF4               	incf	clcd_write@mode,f
 10625  1F8E  1283               	bcf	3,5	;RP0=0, select bank0
 10626  1F8F  1303               	bcf	3,6	;RP1=0, select bank0
 10627  1F90  082F               	movf	clcd_putch@data,w
 10628  1F91  160A  118A  2382  160A  158A  	fcall	_clcd_write
 10629  1F96                     l26:
 10630  1F96  0008               	return
 10631  1F97                     __end_of_clcd_putch:
 10632                           
 10633                           	psect	text41
 10634  12B1                     __ptext41:	
 10635 ;; *************** function _clcd_print *****************
 10636 ;; Defined at:
 10637 ;;		line 62 in file "clcd.c"
 10638 ;; Parameters:    Size  Location     Type
 10639 ;;  str             2    1[BANK0 ] PTR const unsigned char 
 10640 ;;		 -> STR_32(16), STR_31(16), STR_30(13), STR_29(17), 
 10641 ;;		 -> STR_28(14), STR_27(16), STR_26(17), STR_25(19), 
 10642 ;;		 -> STR_24(17), STR_23(17), STR_22(13), STR_21(17), 
 10643 ;;		 -> STR_20(15), STR_19(15), STR_18(16), STR_17(16), 
 10644 ;;		 -> STR_16(17), STR_15(14), STR_14(9), STR_13(13), 
 10645 ;;		 -> STR_12(10), STR_11(9), STR_10(13), STR_9(17), 
 10646 ;;		 -> main@event(3), 
 10647 ;;  addr            1    3[BANK0 ] unsigned char 
 10648 ;; Auto vars:     Size  Location     Type
 10649 ;;		None
 10650 ;; Return value:  Size  Location     Type
 10651 ;;                  1    wreg      void 
 10652 ;; Registers used:
 10653 ;;		wreg, fsr0l, fsr0h, status,2, status,0, btemp+1, pclath, cstack
 10654 ;; Tracked objects:
 10655 ;;		On entry : 0/0
 10656 ;;		On exit  : 0/0
 10657 ;;		Unchanged: 0/0
 10658 ;; Data sizes:     COMMON   BANK0   BANK1   BANK3   BANK2
 10659 ;;      Params:         0       3       0       0       0
 10660 ;;      Locals:         0       0       0       0       0
 10661 ;;      Temps:          0       0       0       0       0
 10662 ;;      Totals:         0       3       0       0       0
 10663 ;;Total ram usage:        3 bytes
 10664 ;; Hardware stack levels used: 1
 10665 ;; Hardware stack levels required when called: 2
 10666 ;; This function calls:
 10667 ;;		_clcd_write
 10668 ;; This function is called by:
 10669 ;;		_main
 10670 ;;		_display_dash_screen
 10671 ;;		_login
 10672 ;;		_login_menu
 10673 ;;		_view_log
 10674 ;;		_change_password
 10675 ;;		_set_time
 10676 ;;		_download_log
 10677 ;; This function uses a non-reentrant model
 10678 ;;
 10679                           
 10680                           
 10681                           ;psect for function _clcd_print
 10682  12B1                     _clcd_print:
 10683  12B1                     l4219:	
 10684                           ;incstack = 0
 10685                           ; Regs used in _clcd_print: [wreg-fsr0h+status,2+status,0+btemp+1+pclath+cstack]
 10686                           
 10687                           
 10688                           ;clcd.c: 62: void clcd_print(const char *str, unsigned char addr);clcd.c: 63: {;clcd.c: 
      +                          64:     clcd_write(addr, 0);
 10689  12B1  01F4               	clrf	clcd_write@mode
 10690  12B2  1283               	bcf	3,5	;RP0=0, select bank0
 10691  12B3  1303               	bcf	3,6	;RP1=0, select bank0
 10692  12B4  0823               	movf	clcd_print@addr,w
 10693  12B5  160A  118A  2382  160A  118A  	fcall	_clcd_write
 10694                           
 10695                           ;clcd.c: 66:     while (*str != '\0')
 10696  12BA  2AD3               	goto	l4225
 10697  12BB                     l4221:
 10698                           
 10699                           ;clcd.c: 67:     {;clcd.c: 68:         clcd_write(*str, 1);
 10700  12BB  01F4               	clrf	clcd_write@mode
 10701  12BC  0AF4               	incf	clcd_write@mode,f
 10702  12BD  0822               	movf	clcd_print@str+1,w
 10703  12BE  00FF               	movwf	btemp+1
 10704  12BF  0821               	movf	clcd_print@str,w
 10705  12C0  0084               	movwf	4
 10706  12C1  160A  158A  2000  160A  118A  	fcall	stringtab
 10707  12C6  160A  118A  2382  160A  118A  	fcall	_clcd_write
 10708  12CB                     l4223:
 10709                           
 10710                           ;clcd.c: 69:         str++;
 10711  12CB  3001               	movlw	1
 10712  12CC  1283               	bcf	3,5	;RP0=0, select bank0
 10713  12CD  1303               	bcf	3,6	;RP1=0, select bank0
 10714  12CE  07A1               	addwf	clcd_print@str,f
 10715  12CF  1803               	skipnc
 10716  12D0  0AA2               	incf	clcd_print@str+1,f
 10717  12D1  3000               	movlw	0
 10718  12D2  07A2               	addwf	clcd_print@str+1,f
 10719  12D3                     l4225:
 10720                           
 10721                           ;clcd.c: 66:     while (*str != '\0')
 10722  12D3  1283               	bcf	3,5	;RP0=0, select bank0
 10723  12D4  1303               	bcf	3,6	;RP1=0, select bank0
 10724  12D5  0822               	movf	clcd_print@str+1,w
 10725  12D6  00FF               	movwf	btemp+1
 10726  12D7  0821               	movf	clcd_print@str,w
 10727  12D8  0084               	movwf	4
 10728  12D9  160A  158A  2000  160A  118A  	fcall	stringtab
 10729  12DE  3A00               	xorlw	0
 10730  12DF  1D03               	skipz
 10731  12E0  2AE2               	goto	u3561
 10732  12E1  2AE3               	goto	u3560
 10733  12E2                     u3561:
 10734  12E2  2ABB               	goto	l4221
 10735  12E3                     u3560:
 10736  12E3                     l32:
 10737  12E3  0008               	return
 10738  12E4                     __end_of_clcd_print:
 10739                           
 10740                           	psect	text42
 10741  1382                     __ptext42:	
 10742 ;; *************** function _clcd_write *****************
 10743 ;; Defined at:
 10744 ;;		line 4 in file "clcd.c"
 10745 ;; Parameters:    Size  Location     Type
 10746 ;;  byte            1    wreg     unsigned char 
 10747 ;;  mode            1    4[COMMON] unsigned char 
 10748 ;; Auto vars:     Size  Location     Type
 10749 ;;  byte            1    0[BANK0 ] unsigned char 
 10750 ;; Return value:  Size  Location     Type
 10751 ;;                  1    wreg      void 
 10752 ;; Registers used:
 10753 ;;		wreg, status,2, status,0
 10754 ;; Tracked objects:
 10755 ;;		On entry : 0/0
 10756 ;;		On exit  : 0/0
 10757 ;;		Unchanged: 0/0
 10758 ;; Data sizes:     COMMON   BANK0   BANK1   BANK3   BANK2
 10759 ;;      Params:         1       0       0       0       0
 10760 ;;      Locals:         0       1       0       0       0
 10761 ;;      Temps:          2       0       0       0       0
 10762 ;;      Totals:         3       1       0       0       0
 10763 ;;Total ram usage:        4 bytes
 10764 ;; Hardware stack levels used: 1
 10765 ;; Hardware stack levels required when called: 1
 10766 ;; This function calls:
 10767 ;;		Nothing
 10768 ;; This function is called by:
 10769 ;;		_init_display_controller
 10770 ;;		_clcd_putch
 10771 ;;		_clcd_print
 10772 ;;		_main
 10773 ;;		_login
 10774 ;;		_change_password
 10775 ;;		_clear_screen
 10776 ;; This function uses a non-reentrant model
 10777 ;;
 10778                           
 10779                           
 10780                           ;psect for function _clcd_write
 10781  1382                     _clcd_write:
 10782                           
 10783                           ;incstack = 0
 10784                           ; Regs used in _clcd_write: [wreg+status,2+status,0]
 10785                           ;clcd_write@byte stored from wreg
 10786  1382  1283               	bcf	3,5	;RP0=0, select bank0
 10787  1383  1303               	bcf	3,6	;RP1=0, select bank0
 10788  1384  00A0               	movwf	clcd_write@byte
 10789  1385                     l4103:
 10790                           
 10791                           ;clcd.c: 4: void clcd_write(unsigned char byte, unsigned char mode);clcd.c: 5: {;clcd.c:
      +                           6:     RE2 =(__bit) mode;
 10792  1385  1874               	btfsc	clcd_write@mode,0
 10793  1386  2B88               	goto	u3421
 10794  1387  2B8C               	goto	u3420
 10795  1388                     u3421:
 10796  1388  1283               	bcf	3,5	;RP0=0, select bank0
 10797  1389  1303               	bcf	3,6	;RP1=0, select bank0
 10798  138A  1509               	bsf	9,2	;volatile
 10799  138B  2B8F               	goto	u3434
 10800  138C                     u3420:
 10801  138C  1283               	bcf	3,5	;RP0=0, select bank0
 10802  138D  1303               	bcf	3,6	;RP1=0, select bank0
 10803  138E  1109               	bcf	9,2	;volatile
 10804  138F                     u3434:
 10805  138F                     l4105:
 10806                           
 10807                           ;clcd.c: 8:     PORTD = byte & 0xF0;
 10808  138F  0820               	movf	clcd_write@byte,w
 10809  1390  39F0               	andlw	240
 10810  1391  0088               	movwf	8	;volatile
 10811  1392                     l4107:
 10812                           
 10813                           ;clcd.c: 9:     RE1 = 1;
 10814  1392  1489               	bsf	9,1	;volatile
 10815  1393                     l4109:
 10816                           
 10817                           ;clcd.c: 10:     _delay((unsigned long)((100)*(20000000/4000000.0)));
 10818  1393  30A6               	movlw	166
 10819  1394  00F5               	movwf	??_clcd_write
 10820  1395                     u5577:
 10821  1395  0BF5               	decfsz	??_clcd_write,f
 10822  1396  2B95               	goto	u5577
 10823  1397  0000               	nop
 10824  1398                     l4111:
 10825                           
 10826                           ;clcd.c: 11:     RE1 = 0;
 10827  1398  1283               	bcf	3,5	;RP0=0, select bank0
 10828  1399  1303               	bcf	3,6	;RP1=0, select bank0
 10829  139A  1089               	bcf	9,1	;volatile
 10830  139B                     l4113:
 10831                           
 10832                           ;clcd.c: 13:     PORTD = (byte & 0x0F) << (unsigned char) 4;
 10833  139B  0820               	movf	clcd_write@byte,w
 10834  139C  390F               	andlw	15
 10835  139D  00F5               	movwf	??_clcd_write
 10836  139E  3003               	movlw	3
 10837  139F                     u3445:
 10838  139F  1003               	clrc
 10839  13A0  0DF5               	rlf	??_clcd_write,f
 10840  13A1  3EFF               	addlw	-1
 10841  13A2  1D03               	skipz
 10842  13A3  2B9F               	goto	u3445
 10843  13A4  1003               	clrc
 10844  13A5  0D75               	rlf	??_clcd_write,w
 10845  13A6  0088               	movwf	8	;volatile
 10846  13A7                     l4115:
 10847                           
 10848                           ;clcd.c: 14:     RE1 = 1;
 10849  13A7  1489               	bsf	9,1	;volatile
 10850  13A8                     l4117:
 10851                           
 10852                           ;clcd.c: 15:     _delay((unsigned long)((100)*(20000000/4000000.0)));
 10853  13A8  30A6               	movlw	166
 10854  13A9  00F5               	movwf	??_clcd_write
 10855  13AA                     u5587:
 10856  13AA  0BF5               	decfsz	??_clcd_write,f
 10857  13AB  2BAA               	goto	u5587
 10858  13AC  0000               	nop
 10859  13AD                     l4119:
 10860                           
 10861                           ;clcd.c: 16:     RE1 = 0;
 10862  13AD  1283               	bcf	3,5	;RP0=0, select bank0
 10863  13AE  1303               	bcf	3,6	;RP1=0, select bank0
 10864  13AF  1089               	bcf	9,1	;volatile
 10865  13B0                     l4121:
 10866                           
 10867                           ;clcd.c: 18:     _delay((unsigned long)((4100)*(20000000/4000000.0)));
 10868  13B0  301B               	movlw	27
 10869  13B1  00F6               	movwf	??_clcd_write+1
 10870  13B2  309E               	movlw	158
 10871  13B3  00F5               	movwf	??_clcd_write
 10872  13B4                     u5597:
 10873  13B4  0BF5               	decfsz	??_clcd_write,f
 10874  13B5  2BB4               	goto	u5597
 10875  13B6  0BF6               	decfsz	??_clcd_write+1,f
 10876  13B7  2BB4               	goto	u5597
 10877  13B8  0000               	nop
 10878  13B9                     l17:
 10879  13B9  0008               	return
 10880  13BA                     __end_of_clcd_write:
 10881                           
 10882                           	psect	text43
 10883  1FE2                     __ptext43:	
 10884 ;; *************** function _byte_write_EEPROM *****************
 10885 ;; Defined at:
 10886 ;;		line 46 in file "EEPROM.c"
 10887 ;; Parameters:    Size  Location     Type
 10888 ;;  addr            1    wreg     unsigned char 
 10889 ;;  data            1    5[COMMON] unsigned char 
 10890 ;; Auto vars:     Size  Location     Type
 10891 ;;  addr            1    6[COMMON] unsigned char 
 10892 ;; Return value:  Size  Location     Type
 10893 ;;                  1    wreg      void 
 10894 ;; Registers used:
 10895 ;;		wreg, status,2, status,0, pclath, cstack
 10896 ;; Tracked objects:
 10897 ;;		On entry : 0/0
 10898 ;;		On exit  : 0/0
 10899 ;;		Unchanged: 0/0
 10900 ;; Data sizes:     COMMON   BANK0   BANK1   BANK3   BANK2
 10901 ;;      Params:         1       0       0       0       0
 10902 ;;      Locals:         1       0       0       0       0
 10903 ;;      Temps:          0       0       0       0       0
 10904 ;;      Totals:         2       0       0       0       0
 10905 ;;Total ram usage:        2 bytes
 10906 ;; Hardware stack levels used: 1
 10907 ;; Hardware stack levels required when called: 3
 10908 ;; This function calls:
 10909 ;;		_i2c_start
 10910 ;;		_i2c_stop
 10911 ;;		_i2c_write
 10912 ;; This function is called by:
 10913 ;;		_str_write_EEPROM
 10914 ;;		_change_password
 10915 ;; This function uses a non-reentrant model
 10916 ;;
 10917                           
 10918                           
 10919                           ;psect for function _byte_write_EEPROM
 10920  1FE2                     _byte_write_EEPROM:
 10921                           
 10922                           ;incstack = 0
 10923                           ; Regs used in _byte_write_EEPROM: [wreg+status,2+status,0+pclath+cstack]
 10924                           ;byte_write_EEPROM@addr stored from wreg
 10925  1FE2  00F6               	movwf	byte_write_EEPROM@addr
 10926  1FE3                     l4129:
 10927                           
 10928                           ;EEPROM.c: 46: void byte_write_EEPROM(unsigned char addr, unsigned char data);EEPROM.c: 
      +                          47: {;EEPROM.c: 49:     i2c_start();
 10929  1FE3  160A  158A  270C  160A  158A  	fcall	_i2c_start
 10930                           
 10931                           ;EEPROM.c: 51:     i2c_write(0b10100000);
 10932  1FE8  30A0               	movlw	160
 10933  1FE9  160A  158A  2728  160A  158A  	fcall	_i2c_write
 10934                           
 10935                           ;EEPROM.c: 53:     i2c_write(addr);
 10936  1FEE  0876               	movf	byte_write_EEPROM@addr,w
 10937  1FEF  160A  158A  2728  160A  158A  	fcall	_i2c_write
 10938                           
 10939                           ;EEPROM.c: 55:     i2c_write(data);
 10940  1FF4  0875               	movf	byte_write_EEPROM@data,w
 10941  1FF5  160A  158A  2728  160A  158A  	fcall	_i2c_write
 10942                           
 10943                           ;EEPROM.c: 57:     i2c_stop();
 10944  1FFA  160A  158A  2715  160A  158A  	fcall	_i2c_stop
 10945  1FFF                     l269:
 10946  1FFF  0008               	return
 10947  2000                     __end_of_byte_write_EEPROM:
 10948                           
 10949                           	psect	text44
 10950  1F28                     __ptext44:	
 10951 ;; *************** function _i2c_write *****************
 10952 ;; Defined at:
 10953 ;;		line 65 in file "i2c.c"
 10954 ;; Parameters:    Size  Location     Type
 10955 ;;  data            1    wreg     unsigned char 
 10956 ;; Auto vars:     Size  Location     Type
 10957 ;;  data            1    4[COMMON] unsigned char 
 10958 ;; Return value:  Size  Location     Type
 10959 ;;                  2   40[None  ] int 
 10960 ;; Registers used:
 10961 ;;		wreg, status,2, status,0, pclath, cstack
 10962 ;; Tracked objects:
 10963 ;;		On entry : 0/0
 10964 ;;		On exit  : 0/0
 10965 ;;		Unchanged: 0/0
 10966 ;; Data sizes:     COMMON   BANK0   BANK1   BANK3   BANK2
 10967 ;;      Params:         0       0       0       0       0
 10968 ;;      Locals:         1       0       0       0       0
 10969 ;;      Temps:          0       0       0       0       0
 10970 ;;      Totals:         1       0       0       0       0
 10971 ;;Total ram usage:        1 bytes
 10972 ;; Hardware stack levels used: 1
 10973 ;; Hardware stack levels required when called: 2
 10974 ;; This function calls:
 10975 ;;		_i2c_wait_for_idle
 10976 ;; This function is called by:
 10977 ;;		_read_ds1307
 10978 ;;		_write_ds1307
 10979 ;;		_read_EEPROM
 10980 ;;		_byte_write_EEPROM
 10981 ;; This function uses a non-reentrant model
 10982 ;;
 10983                           
 10984                           
 10985                           ;psect for function _i2c_write
 10986  1F28                     _i2c_write:
 10987                           
 10988                           ;incstack = 0
 10989                           ; Regs used in _i2c_write: [wreg+status,2+status,0+pclath+cstack]
 10990                           ;i2c_write@data stored from wreg
 10991  1F28  00F4               	movwf	i2c_write@data
 10992  1F29                     l4079:
 10993                           
 10994                           ;i2c.c: 65: int i2c_write(unsigned char data);i2c.c: 66: {;i2c.c: 67:     i2c_wait_for_i
      +                          dle();
 10995  1F29  120A  118A  27F3  160A  158A  	fcall	_i2c_wait_for_idle
 10996  1F2E                     l4081:
 10997                           
 10998                           ;i2c.c: 68:     SSPBUF = data;
 10999  1F2E  0874               	movf	i2c_write@data,w
 11000  1F2F  1283               	bcf	3,5	;RP0=0, select bank0
 11001  1F30  1303               	bcf	3,6	;RP1=0, select bank0
 11002  1F31  0093               	movwf	19	;volatile
 11003  1F32                     l4083:
 11004  1F32                     l107:	
 11005                           ;i2c.c: 70:     return !ACKSTAT;;	Return value of _i2c_write is never used
 11006                           
 11007  1F32  0008               	return
 11008  1F33                     __end_of_i2c_write:
 11009                           
 11010                           	psect	text45
 11011  1F15                     __ptext45:	
 11012 ;; *************** function _i2c_stop *****************
 11013 ;; Defined at:
 11014 ;;		line 35 in file "i2c.c"
 11015 ;; Parameters:    Size  Location     Type
 11016 ;;		None
 11017 ;; Auto vars:     Size  Location     Type
 11018 ;;		None
 11019 ;; Return value:  Size  Location     Type
 11020 ;;                  1    wreg      void 
 11021 ;; Registers used:
 11022 ;;		wreg, status,2, status,0, pclath, cstack
 11023 ;; Tracked objects:
 11024 ;;		On entry : 0/0
 11025 ;;		On exit  : 0/0
 11026 ;;		Unchanged: 0/0
 11027 ;; Data sizes:     COMMON   BANK0   BANK1   BANK3   BANK2
 11028 ;;      Params:         0       0       0       0       0
 11029 ;;      Locals:         0       0       0       0       0
 11030 ;;      Temps:          0       0       0       0       0
 11031 ;;      Totals:         0       0       0       0       0
 11032 ;;Total ram usage:        0 bytes
 11033 ;; Hardware stack levels used: 1
 11034 ;; Hardware stack levels required when called: 2
 11035 ;; This function calls:
 11036 ;;		_i2c_wait_for_idle
 11037 ;; This function is called by:
 11038 ;;		_read_ds1307
 11039 ;;		_write_ds1307
 11040 ;;		_i2c_rep_start
 11041 ;;		_read_EEPROM
 11042 ;;		_byte_write_EEPROM
 11043 ;; This function uses a non-reentrant model
 11044 ;;
 11045                           
 11046                           
 11047                           ;psect for function _i2c_stop
 11048  1F15                     _i2c_stop:
 11049  1F15                     l4075:	
 11050                           ;incstack = 0
 11051                           ; Regs used in _i2c_stop: [wreg+status,2+status,0+pclath+cstack]
 11052                           
 11053                           
 11054                           ;i2c.c: 37:     i2c_wait_for_idle();
 11055  1F15  120A  118A  27F3  160A  158A  	fcall	_i2c_wait_for_idle
 11056  1F1A                     l4077:
 11057                           
 11058                           ;i2c.c: 38:     PEN = 1;
 11059  1F1A  1683               	bsf	3,5	;RP0=1, select bank1
 11060  1F1B  1303               	bcf	3,6	;RP1=0, select bank1
 11061  1F1C  1511               	bsf	17,2	;volatile
 11062  1F1D                     l99:
 11063  1F1D  0008               	return
 11064  1F1E                     __end_of_i2c_stop:
 11065                           
 11066                           	psect	text46
 11067  1F0C                     __ptext46:	
 11068 ;; *************** function _i2c_start *****************
 11069 ;; Defined at:
 11070 ;;		line 22 in file "i2c.c"
 11071 ;; Parameters:    Size  Location     Type
 11072 ;;		None
 11073 ;; Auto vars:     Size  Location     Type
 11074 ;;		None
 11075 ;; Return value:  Size  Location     Type
 11076 ;;                  1    wreg      void 
 11077 ;; Registers used:
 11078 ;;		wreg, status,2, status,0, pclath, cstack
 11079 ;; Tracked objects:
 11080 ;;		On entry : 0/0
 11081 ;;		On exit  : 0/0
 11082 ;;		Unchanged: 0/0
 11083 ;; Data sizes:     COMMON   BANK0   BANK1   BANK3   BANK2
 11084 ;;      Params:         0       0       0       0       0
 11085 ;;      Locals:         0       0       0       0       0
 11086 ;;      Temps:          0       0       0       0       0
 11087 ;;      Totals:         0       0       0       0       0
 11088 ;;Total ram usage:        0 bytes
 11089 ;; Hardware stack levels used: 1
 11090 ;; Hardware stack levels required when called: 2
 11091 ;; This function calls:
 11092 ;;		_i2c_wait_for_idle
 11093 ;; This function is called by:
 11094 ;;		_read_ds1307
 11095 ;;		_write_ds1307
 11096 ;;		_i2c_rep_start
 11097 ;;		_read_EEPROM
 11098 ;;		_byte_write_EEPROM
 11099 ;; This function uses a non-reentrant model
 11100 ;;
 11101                           
 11102                           
 11103                           ;psect for function _i2c_start
 11104  1F0C                     _i2c_start:
 11105  1F0C                     l4071:	
 11106                           ;incstack = 0
 11107                           ; Regs used in _i2c_start: [wreg+status,2+status,0+pclath+cstack]
 11108                           
 11109                           
 11110                           ;i2c.c: 24:     i2c_wait_for_idle();
 11111  1F0C  120A  118A  27F3  160A  158A  	fcall	_i2c_wait_for_idle
 11112  1F11                     l4073:
 11113                           
 11114                           ;i2c.c: 25:     SEN = 1;
 11115  1F11  1683               	bsf	3,5	;RP0=1, select bank1
 11116  1F12  1303               	bcf	3,6	;RP1=0, select bank1
 11117  1F13  1411               	bsf	17,0	;volatile
 11118  1F14                     l93:
 11119  1F14  0008               	return
 11120  1F15                     __end_of_i2c_start:
 11121                           
 11122                           	psect	text47
 11123  07F3                     __ptext47:	
 11124 ;; *************** function _i2c_wait_for_idle *****************
 11125 ;; Defined at:
 11126 ;;		line 16 in file "i2c.c"
 11127 ;; Parameters:    Size  Location     Type
 11128 ;;		None
 11129 ;; Auto vars:     Size  Location     Type
 11130 ;;		None
 11131 ;; Return value:  Size  Location     Type
 11132 ;;                  1    wreg      void 
 11133 ;; Registers used:
 11134 ;;		wreg, status,2
 11135 ;; Tracked objects:
 11136 ;;		On entry : 0/0
 11137 ;;		On exit  : 0/0
 11138 ;;		Unchanged: 0/0
 11139 ;; Data sizes:     COMMON   BANK0   BANK1   BANK3   BANK2
 11140 ;;      Params:         0       0       0       0       0
 11141 ;;      Locals:         0       0       0       0       0
 11142 ;;      Temps:          0       0       0       0       0
 11143 ;;      Totals:         0       0       0       0       0
 11144 ;;Total ram usage:        0 bytes
 11145 ;; Hardware stack levels used: 1
 11146 ;; Hardware stack levels required when called: 1
 11147 ;; This function calls:
 11148 ;;		Nothing
 11149 ;; This function is called by:
 11150 ;;		_i2c_start
 11151 ;;		_i2c_stop
 11152 ;;		_i2c_read
 11153 ;;		_i2c_write
 11154 ;; This function uses a non-reentrant model
 11155 ;;
 11156                           
 11157                           
 11158                           ;psect for function _i2c_wait_for_idle
 11159  07F3                     _i2c_wait_for_idle:
 11160  07F3                     l4067:	
 11161                           ;incstack = 0
 11162                           ; Regs used in _i2c_wait_for_idle: [wreg+status,2]
 11163                           
 11164  07F3                     l87:	
 11165                           ;i2c.c: 19:     while (R_nW || (SSPCON2 & 0x1F));
 11166                           
 11167  07F3  1683               	bsf	3,5	;RP0=1, select bank1
 11168  07F4  1303               	bcf	3,6	;RP1=0, select bank1
 11169  07F5  1914               	btfsc	20,2	;volatile
 11170  07F6  2FF8               	goto	u3391
 11171  07F7  2FF9               	goto	u3390
 11172  07F8                     u3391:
 11173  07F8  2FF3               	goto	l87
 11174  07F9                     u3390:
 11175  07F9                     l4069:
 11176  07F9  0811               	movf	17,w	;volatile
 11177  07FA  391F               	andlw	31
 11178  07FB  1D03               	btfss	3,2
 11179  07FC  2FFE               	goto	u3401
 11180  07FD  2FFF               	goto	u3400
 11181  07FE                     u3401:
 11182  07FE  2FF3               	goto	l87
 11183  07FF                     u3400:
 11184  07FF                     l90:
 11185  07FF  0008               	return
 11186  0800                     __end_of_i2c_wait_for_idle:
 11187                           
 11188                           	psect	text48
 11189  14AD                     __ptext48:	
 11190 ;; *************** function ___lwdiv *****************
 11191 ;; Defined at:
 11192 ;;		line 5 in file "C:\Program Files\Microchip\xc8\v2.32\pic\sources\c90\common\lwdiv.c"
 11193 ;; Parameters:    Size  Location     Type
 11194 ;;  divisor         2    2[BANK0 ] unsigned int 
 11195 ;;  dividend        2    4[BANK0 ] unsigned int 
 11196 ;; Auto vars:     Size  Location     Type
 11197 ;;  quotient        2    7[BANK0 ] unsigned int 
 11198 ;;  counter         1    6[BANK0 ] unsigned char 
 11199 ;; Return value:  Size  Location     Type
 11200 ;;                  2    2[BANK0 ] unsigned int 
 11201 ;; Registers used:
 11202 ;;		wreg, status,2, status,0
 11203 ;; Tracked objects:
 11204 ;;		On entry : 0/0
 11205 ;;		On exit  : 0/0
 11206 ;;		Unchanged: 0/0
 11207 ;; Data sizes:     COMMON   BANK0   BANK1   BANK3   BANK2
 11208 ;;      Params:         0       4       0       0       0
 11209 ;;      Locals:         0       3       0       0       0
 11210 ;;      Temps:          1       0       0       0       0
 11211 ;;      Totals:         1       7       0       0       0
 11212 ;;Total ram usage:        8 bytes
 11213 ;; Hardware stack levels used: 1
 11214 ;; Hardware stack levels required when called: 1
 11215 ;; This function calls:
 11216 ;;		Nothing
 11217 ;; This function is called by:
 11218 ;;		_main
 11219 ;; This function uses a non-reentrant model
 11220 ;;
 11221                           
 11222                           
 11223                           ;psect for function ___lwdiv
 11224  14AD                     ___lwdiv:
 11225  14AD                     l5077:	
 11226                           ;incstack = 0
 11227                           ; Regs used in ___lwdiv: [wreg+status,2+status,0]
 11228                           
 11229  14AD  1283               	bcf	3,5	;RP0=0, select bank0
 11230  14AE  1303               	bcf	3,6	;RP1=0, select bank0
 11231  14AF  01A7               	clrf	___lwdiv@quotient
 11232  14B0  01A8               	clrf	___lwdiv@quotient+1
 11233  14B1                     l5079:
 11234  14B1  0822               	movf	___lwdiv@divisor,w
 11235  14B2  0423               	iorwf	___lwdiv@divisor+1,w
 11236  14B3  1903               	btfsc	3,2
 11237  14B4  2CB6               	goto	u4681
 11238  14B5  2CB7               	goto	u4680
 11239  14B6                     u4681:
 11240  14B6  2CEE               	goto	l5099
 11241  14B7                     u4680:
 11242  14B7                     l5081:
 11243  14B7  01A6               	clrf	___lwdiv@counter
 11244  14B8  0AA6               	incf	___lwdiv@counter,f
 11245  14B9  2CC5               	goto	l5087
 11246  14BA                     l5083:
 11247  14BA  3001               	movlw	1
 11248  14BB                     u4695:
 11249  14BB  1003               	clrc
 11250  14BC  0DA2               	rlf	___lwdiv@divisor,f
 11251  14BD  0DA3               	rlf	___lwdiv@divisor+1,f
 11252  14BE  3EFF               	addlw	-1
 11253  14BF  1D03               	skipz
 11254  14C0  2CBB               	goto	u4695
 11255  14C1                     l5085:
 11256  14C1  3001               	movlw	1
 11257  14C2  00F6               	movwf	??___lwdiv
 11258  14C3  0876               	movf	??___lwdiv,w
 11259  14C4  07A6               	addwf	___lwdiv@counter,f
 11260  14C5                     l5087:
 11261  14C5  1FA3               	btfss	___lwdiv@divisor+1,7
 11262  14C6  2CC8               	goto	u4701
 11263  14C7  2CC9               	goto	u4700
 11264  14C8                     u4701:
 11265  14C8  2CBA               	goto	l5083
 11266  14C9                     u4700:
 11267  14C9                     l5089:
 11268  14C9  3001               	movlw	1
 11269  14CA                     u4715:
 11270  14CA  1003               	clrc
 11271  14CB  0DA7               	rlf	___lwdiv@quotient,f
 11272  14CC  0DA8               	rlf	___lwdiv@quotient+1,f
 11273  14CD  3EFF               	addlw	-1
 11274  14CE  1D03               	skipz
 11275  14CF  2CCA               	goto	u4715
 11276  14D0  0823               	movf	___lwdiv@divisor+1,w
 11277  14D1  0225               	subwf	___lwdiv@dividend+1,w
 11278  14D2  1D03               	skipz
 11279  14D3  2CD6               	goto	u4725
 11280  14D4  0822               	movf	___lwdiv@divisor,w
 11281  14D5  0224               	subwf	___lwdiv@dividend,w
 11282  14D6                     u4725:
 11283  14D6  1C03               	skipc
 11284  14D7  2CD9               	goto	u4721
 11285  14D8  2CDA               	goto	u4720
 11286  14D9                     u4721:
 11287  14D9  2CE1               	goto	l5095
 11288  14DA                     u4720:
 11289  14DA                     l5091:
 11290  14DA  0822               	movf	___lwdiv@divisor,w
 11291  14DB  02A4               	subwf	___lwdiv@dividend,f
 11292  14DC  0823               	movf	___lwdiv@divisor+1,w
 11293  14DD  1C03               	skipc
 11294  14DE  03A5               	decf	___lwdiv@dividend+1,f
 11295  14DF  02A5               	subwf	___lwdiv@dividend+1,f
 11296  14E0                     l5093:
 11297  14E0  1427               	bsf	___lwdiv@quotient,0
 11298  14E1                     l5095:
 11299  14E1  3001               	movlw	1
 11300  14E2                     u4735:
 11301  14E2  1003               	clrc
 11302  14E3  0CA3               	rrf	___lwdiv@divisor+1,f
 11303  14E4  0CA2               	rrf	___lwdiv@divisor,f
 11304  14E5  3EFF               	addlw	-1
 11305  14E6  1D03               	skipz
 11306  14E7  2CE2               	goto	u4735
 11307  14E8                     l5097:
 11308  14E8  3001               	movlw	1
 11309  14E9  02A6               	subwf	___lwdiv@counter,f
 11310  14EA  1D03               	btfss	3,2
 11311  14EB  2CED               	goto	u4741
 11312  14EC  2CEE               	goto	u4740
 11313  14ED                     u4741:
 11314  14ED  2CC9               	goto	l5089
 11315  14EE                     u4740:
 11316  14EE                     l5099:
 11317  14EE  0828               	movf	___lwdiv@quotient+1,w
 11318  14EF  00A3               	movwf	?___lwdiv+1
 11319  14F0  0827               	movf	___lwdiv@quotient,w
 11320  14F1  00A2               	movwf	?___lwdiv
 11321  14F2                     l928:
 11322  14F2  0008               	return
 11323  14F3                     __end_of___lwdiv:
 11324                           
 11325                           	psect	text49
 11326  14F3                     __ptext49:	
 11327 ;; *************** function _isr *****************
 11328 ;; Defined at:
 11329 ;;		line 7 in file "isr.c"
 11330 ;; Parameters:    Size  Location     Type
 11331 ;;		None
 11332 ;; Auto vars:     Size  Location     Type
 11333 ;;		None
 11334 ;; Return value:  Size  Location     Type
 11335 ;;                  1    wreg      void 
 11336 ;; Registers used:
 11337 ;;		wreg, status,2, status,0, btemp+1
 11338 ;; Tracked objects:
 11339 ;;		On entry : 0/0
 11340 ;;		On exit  : 0/0
 11341 ;;		Unchanged: 0/0
 11342 ;; Data sizes:     COMMON   BANK0   BANK1   BANK3   BANK2
 11343 ;;      Params:         0       0       0       0       0
 11344 ;;      Locals:         0       0       0       0       0
 11345 ;;      Temps:          4       0       0       0       0
 11346 ;;      Totals:         4       0       0       0       0
 11347 ;;Total ram usage:        4 bytes
 11348 ;; Hardware stack levels used: 1
 11349 ;; This function calls:
 11350 ;;		Nothing
 11351 ;; This function is called by:
 11352 ;;		Interrupt level 1
 11353 ;; This function uses a non-reentrant model
 11354 ;;
 11355                           
 11356                           
 11357                           ;psect for function _isr
 11358  14F3                     _isr:
 11359  14F3                     i1l3923:
 11360                           
 11361                           ;isr.c: 9:     static unsigned int count = 0;;isr.c: 11:     if (TMR2IF == 1)
 11362  14F3  1C8C               	btfss	12,1	;volatile
 11363  14F4  2CF6               	goto	u332_21
 11364  14F5  2CF7               	goto	u332_20
 11365  14F6                     u332_21:
 11366  14F6  2D43               	goto	i1l535
 11367  14F7                     u332_20:
 11368  14F7                     i1l3925:
 11369                           
 11370                           ;isr.c: 12:     {;isr.c: 13:         if (++count == 1250)
 11371  14F7  3001               	movlw	1
 11372  14F8  1683               	bsf	3,5	;RP0=1, select bank1
 11373  14F9  1303               	bcf	3,6	;RP1=0, select bank1
 11374  14FA  07A7               	addwf	isr@count^(0+128),f
 11375  14FB  1803               	skipnc
 11376  14FC  0AA8               	incf	(isr@count+1)^(0+128),f
 11377  14FD  3000               	movlw	0
 11378  14FE  07A8               	addwf	(isr@count+1)^(0+128),f
 11379  14FF  30E2               	movlw	226
 11380  1500  0627               	xorwf	isr@count^(0+128),w
 11381  1501  3004               	movlw	4
 11382  1502  1903               	skipnz
 11383  1503  0628               	xorwf	(isr@count+1)^(0+128),w
 11384  1504  1D03               	btfss	3,2
 11385  1505  2D07               	goto	u333_21
 11386  1506  2D08               	goto	u333_20
 11387  1507                     u333_21:
 11388  1507  2D41               	goto	i1l3945
 11389  1508                     u333_20:
 11390  1508                     i1l3927:
 11391                           
 11392                           ;isr.c: 14:         {;isr.c: 15:             count = 0;
 11393  1508  01A7               	clrf	isr@count^(0+128)
 11394  1509  01A8               	clrf	(isr@count+1)^(0+128)
 11395  150A                     i1l3929:
 11396                           
 11397                           ;isr.c: 16:             if(sec > 0)
 11398  150A  1283               	bcf	3,5	;RP0=0, select bank0
 11399  150B  1303               	bcf	3,6	;RP1=0, select bank0
 11400  150C  084F               	movf	_sec,w
 11401  150D  1903               	btfsc	3,2
 11402  150E  2D10               	goto	u334_21
 11403  150F  2D11               	goto	u334_20
 11404  1510                     u334_21:
 11405  1510  2D13               	goto	i1l532
 11406  1511                     u334_20:
 11407  1511                     i1l3931:
 11408                           
 11409                           ;isr.c: 17:                 sec--;
 11410  1511  3001               	movlw	1
 11411  1512  02CF               	subwf	_sec,f
 11412  1513                     i1l532:
 11413                           
 11414                           ;isr.c: 18:             if(sec == 0 && return_time > 0)
 11415  1513  084F               	movf	_sec,w
 11416  1514  1D03               	btfss	3,2
 11417  1515  2D17               	goto	u335_21
 11418  1516  2D18               	goto	u335_20
 11419  1517                     u335_21:
 11420  1517  2D2F               	goto	i1l3937
 11421  1518                     u335_20:
 11422  1518                     i1l3933:
 11423  1518  1683               	bsf	3,5	;RP0=1, select bank1
 11424  1519  1303               	bcf	3,6	;RP1=0, select bank1
 11425  151A  082A               	movf	(_return_time+1)^(0+128),w
 11426  151B  3A80               	xorlw	128
 11427  151C  00FF               	movwf	btemp+1
 11428  151D  3080               	movlw	128
 11429  151E  027F               	subwf	btemp+1,w
 11430  151F  1D03               	skipz
 11431  1520  2D23               	goto	u336_25
 11432  1521  3001               	movlw	1
 11433  1522  0229               	subwf	_return_time^(0+128),w
 11434  1523                     u336_25:
 11435  1523  1C03               	skipc
 11436  1524  2D26               	goto	u336_21
 11437  1525  2D27               	goto	u336_20
 11438  1526                     u336_21:
 11439  1526  2D2F               	goto	i1l3937
 11440  1527                     u336_20:
 11441  1527                     i1l3935:
 11442                           
 11443                           ;isr.c: 19:                 return_time--;
 11444  1527  30FF               	movlw	255
 11445  1528  1683               	bsf	3,5	;RP0=1, select bank1
 11446  1529  1303               	bcf	3,6	;RP1=0, select bank1
 11447  152A  07A9               	addwf	_return_time^(0+128),f
 11448  152B  1803               	skipnc
 11449  152C  0AAA               	incf	(_return_time+1)^(0+128),f
 11450  152D  30FF               	movlw	255
 11451  152E  07AA               	addwf	(_return_time+1)^(0+128),f
 11452  152F                     i1l3937:
 11453                           
 11454                           ;isr.c: 20:             if(sec == 0 && min > 0)
 11455  152F  1283               	bcf	3,5	;RP0=0, select bank0
 11456  1530  1303               	bcf	3,6	;RP1=0, select bank0
 11457  1531  084F               	movf	_sec,w
 11458  1532  1D03               	btfss	3,2
 11459  1533  2D35               	goto	u337_21
 11460  1534  2D36               	goto	u337_20
 11461  1535                     u337_21:
 11462  1535  2D41               	goto	i1l3945
 11463  1536                     u337_20:
 11464  1536                     i1l3939:
 11465  1536  084E               	movf	_min,w
 11466  1537  1903               	btfsc	3,2
 11467  1538  2D3A               	goto	u338_21
 11468  1539  2D3B               	goto	u338_20
 11469  153A                     u338_21:
 11470  153A  2D41               	goto	i1l3945
 11471  153B                     u338_20:
 11472  153B                     i1l3941:
 11473                           
 11474                           ;isr.c: 21:             {;isr.c: 22:                 min--;
 11475  153B  3001               	movlw	1
 11476  153C  02CE               	subwf	_min,f
 11477  153D                     i1l3943:
 11478                           
 11479                           ;isr.c: 23:                 sec = 60;
 11480  153D  303C               	movlw	60
 11481  153E  00F0               	movwf	??_isr
 11482  153F  0870               	movf	??_isr,w
 11483  1540  00CF               	movwf	_sec
 11484  1541                     i1l3945:
 11485                           
 11486                           ;isr.c: 27:         TMR2IF = 0;
 11487  1541  1283               	bcf	3,5	;RP0=0, select bank0
 11488  1542  108C               	bcf	12,1	;volatile
 11489  1543                     i1l535:
 11490  1543  0873               	movf	??_isr+3,w
 11491  1544  00FF               	movwf	btemp+1
 11492  1545  0872               	movf	??_isr+2,w
 11493  1546  008A               	movwf	10
 11494  1547  0E71               	swapf	??_isr+1,w
 11495  1548  0083               	movwf	3
 11496  1549  0EFE               	swapf	btemp,f
 11497  154A  0E7E               	swapf	btemp,w
 11498  154B  0009               	retfie
 11499  154C                     __end_of_isr:
 11500  007E                     btemp	set	126	;btemp
 11501  007E                     wtemp0	set	126
 11502                           
 11503                           	psect	intentry
 11504  0004                     __pintentry:	
 11505                           ;incstack = 0
 11506                           ; Regs used in _isr: [wreg+status,2+status,0+btemp+1]
 11507                           
 11508  0004                     interrupt_function:
 11509  007E                     saved_w	set	btemp
 11510  0004  00FE               	movwf	btemp
 11511  0005  0E03               	swapf	3,w
 11512  0006  00F1               	movwf	??_isr+1
 11513  0007  080A               	movf	10,w
 11514  0008  00F2               	movwf	??_isr+2
 11515  0009  1283               	bcf	3,5	;RP0=0, select bank0
 11516  000A  1303               	bcf	3,6	;RP1=0, select bank0
 11517  000B  087F               	movf	btemp+1,w
 11518  000C  00F3               	movwf	??_isr+3
 11519  000D  160A  118A  2CF3   	ljmp	_isr
 11520                           
 11521                           	psect	config
 11522                           
 11523                           ;Config register CONFIG @ 0x2007
 11524                           ;	Oscillator Selection bits
 11525                           ;	FOSC = 0x3, unprogrammed default
 11526                           ;	Watchdog Timer Enable bit
 11527                           ;	WDTE = OFF, WDT disabled
 11528                           ;	Power-up Timer Enable bit
 11529                           ;	PWRTE = 0x1, unprogrammed default
 11530                           ;	Brown-out Reset Enable bit
 11531                           ;	BOREN = 0x1, unprogrammed default
 11532                           ;	Low-Voltage (Single-Supply) In-Circuit Serial Programming Enable bit
 11533                           ;	LVP = 0x1, unprogrammed default
 11534                           ;	Data EEPROM Memory Code Protection bit
 11535                           ;	CPD = 0x1, unprogrammed default
 11536                           ;	Flash Program Memory Write Enable bits
 11537                           ;	WRT = 0x3, unprogrammed default
 11538                           ;	In-Circuit Debugger Mode bit
 11539                           ;	DEBUG = 0x1, unprogrammed default
 11540                           ;	Flash Program Memory Code Protection bit
 11541                           ;	CP = 0x1, unprogrammed default
 11542  2007                     	org	8199
 11543  2007  3FFB               	dw	16379

Data Sizes:
    Strings     353
    Constant    0
    Data        28
    BSS         63
    Persistent  0
    Stack       0

Auto Spaces:
    Space          Size  Autos    Used
    COMMON           14      7      10
    BANK0            80     30      52
    BANK1            80      0      66
    BANK3            96     33      33
    BANK2            96      0       0

Pointer List with Targets:

    strncpy@from	PTR const unsigned char  size(2) Largest target is 7
		 -> time(BANK1[7]), main@event(BANK3[3]), 

    strncpy@to	PTR unsigned char  size(1) Largest target is 11
		 -> log(BANK1[11]), 

    strncpy@cp	PTR unsigned char  size(1) Largest target is 11
		 -> log(BANK1[11]), 

    strncmp@s2	PTR const unsigned char  size(1) Largest target is 4
		 -> change_password@re_npasswd(BANK1[4]), login@spasswd(BANK0[4]), 

    strncmp@s1	PTR const unsigned char  size(1) Largest target is 4
		 -> change_password@npasswd(BANK1[4]), login@npasswd(BANK1[4]), 

    strcpy@from	PTR const unsigned char  size(2) Largest target is 3
		 -> STR_8(CODE[3]), STR_6(CODE[3]), STR_5(CODE[3]), STR_4(CODE[3]), 
		 -> STR_3(CODE[3]), STR_2(CODE[3]), STR_1(CODE[3]), 

    strcpy@to	PTR unsigned char  size(1) Largest target is 3
		 -> main@event(BANK3[3]), 

    strcpy@cp	PTR unsigned char  size(1) Largest target is 3
		 -> main@event(BANK3[3]), 

    puts@s	PTR const unsigned char  size(2) Largest target is 18
		 -> STR_33(CODE[18]), 

    log_event@event	PTR unsigned char  size(1) Largest target is 3
		 -> main@event(BANK3[3]), 

    sp__strncpy	PTR unsigned char  size(1) Largest target is 11
		 -> log(BANK1[11]), 

    display_dash_screen@event	PTR unsigned char  size(1) Largest target is 3
		 -> main@event(BANK3[3]), 

    menu	PTR unsigned char [5] size(2) Largest target is 14
		 -> STR_15(CODE[14]), STR_14(CODE[9]), STR_13(CODE[13]), STR_12(CODE[10]), 
		 -> STR_11(CODE[9]), 

    str_write_EEPROM@data	PTR unsigned char  size(2) Largest target is 11
		 -> log(BANK1[11]), STR_7(CODE[5]), 

    sp__strcpy	PTR unsigned char  size(1) Largest target is 3
		 -> main@event(BANK3[3]), 

    main@gear	PTR const unsigned char [6] size(2) Largest target is 3
		 -> STR_6(CODE[3]), STR_5(CODE[3]), STR_4(CODE[3]), STR_3(CODE[3]), 
		 -> STR_2(CODE[3]), STR_1(CODE[3]), 

    main@F1017	PTR const unsigned char [6] size(2) Largest target is 3
		 -> STR_6(CODE[3]), STR_5(CODE[3]), STR_4(CODE[3]), STR_3(CODE[3]), 
		 -> STR_2(CODE[3]), STR_1(CODE[3]), 

    clcd_print@str	PTR const unsigned char  size(2) Largest target is 19
		 -> STR_32(CODE[16]), STR_31(CODE[16]), STR_30(CODE[13]), STR_29(CODE[17]), 
		 -> STR_28(CODE[14]), STR_27(CODE[16]), STR_26(CODE[17]), STR_25(CODE[19]), 
		 -> STR_24(CODE[17]), STR_23(CODE[17]), STR_22(CODE[13]), STR_21(CODE[17]), 
		 -> STR_20(CODE[15]), STR_19(CODE[15]), STR_18(CODE[16]), STR_17(CODE[16]), 
		 -> STR_16(CODE[17]), STR_15(CODE[14]), STR_14(CODE[9]), STR_13(CODE[13]), 
		 -> STR_12(CODE[10]), STR_11(CODE[9]), STR_10(CODE[13]), STR_9(CODE[17]), 
		 -> main@event(BANK3[3]), 


Critical Paths under _main in COMMON

    _main->___lwdiv
    _main->_clcd_write
    _main->_strcpy
    _main->_write_ds1307
    _login->_clcd_write
    _login->_strncmp
    _log_event->_strncpy
    _str_write_EEPROM->_byte_write_EEPROM
    _init_uart->___lldiv
    _init_i2c->___lldiv
    _init_ds1307->_write_ds1307
    _init_display_controller->_clcd_write
    _download_log->_puts
    _read_EEPROM->_i2c_read
    _puts->_putchar
    _read_ds1307->_i2c_read
    _dec2bcd->___awmod
    ___awmod->___awdiv
    _change_password->_byte_write_EEPROM
    _change_password->_clcd_write
    _change_password->_strncmp
    _clear_screen->_clcd_write
    _clcd_putch->_clcd_write
    _clcd_print->_clcd_write
    _byte_write_EEPROM->_i2c_write
    ___lwdiv->_read_adc

Critical Paths under _isr in COMMON

    None.

Critical Paths under _main in BANK0

    _main->_login
    _view_log->_clcd_putch
    _set_time->_clcd_putch
    _login_menu->_clcd_putch
    _login->_clcd_putch
    _log_event->___awmod
    _log_car_event->_str_write_EEPROM
    _init_config->_init_ds1307
    _init_uart->___lldiv
    _init_i2c->___lldiv
    _init_ds1307->_write_ds1307
    _write_ds1307->_dec2bcd
    _init_clcd->_init_display_controller
    _init_display_controller->_clcd_write
    _download_log->_clcd_print
    _display_dash_screen->_display_time
    _display_time->_clcd_putch
    _get_time->_read_ds1307
    _dec2bcd->___awmod
    ___awmod->___awdiv
    _change_password->_clcd_putch
    _clear_screen->_clcd_write
    _clcd_putch->___awmod
    _clcd_print->_clcd_write
    ___lwdiv->_read_adc

Critical Paths under _isr in BANK0

    None.

Critical Paths under _main in BANK1

    None.

Critical Paths under _isr in BANK1

    None.

Critical Paths under _main in BANK3

    None.

Critical Paths under _isr in BANK3

    None.

Critical Paths under _main in BANK2

    None.

Critical Paths under _isr in BANK2

    None.

Call Graph Tables:

 ---------------------------------------------------------------------------------
 (Depth) Function   	        Calls       Base Space   Used Autos Params    Refs
 ---------------------------------------------------------------------------------
 (0) _main                                                37    37      0  181775
                                             26 BANK0      4     4      0
                                              0 BANK3     33    33      0
                            ___lwdiv
                    _change_password
                         _clcd_print
                         _clcd_putch
                         _clcd_write
                       _clear_screen
                            _dec2bcd
                _display_dash_screen
                       _download_log
                        _init_config
                          _log_event
                              _login
                         _login_menu
                           _read_adc
                _read_digital_keypad
                           _set_time
                   _str_write_EEPROM
                             _strcpy
                           _view_log
                       _write_ds1307
 ---------------------------------------------------------------------------------
 (1) _view_log                                             6     5      1   18251
                                             16 BANK0      6     5      1
                             ___bmul
                         _clcd_print
                         _clcd_putch
                       _clear_screen
                        _read_EEPROM
 ---------------------------------------------------------------------------------
 (2) _strcpy                                               5     3      2     487
                                              4 COMMON     3     1      2
                                              0 BANK0      2     2      0
 ---------------------------------------------------------------------------------
 (1) _set_time                                             5     4      1   23128
                                             16 BANK0      5     4      1
                            ___awdiv
                            ___awmod
                             ___bmul
                         _clcd_print
                         _clcd_putch
                       _clear_screen
                           _get_time
 ---------------------------------------------------------------------------------
 (1) _read_digital_keypad                                  2     2      0      31
                                              4 COMMON     2     2      0
 ---------------------------------------------------------------------------------
 (1) _read_adc                                             4     2      2      34
                                              4 COMMON     2     0      2
                                              0 BANK0      2     2      0
 ---------------------------------------------------------------------------------
 (1) _login_menu                                           5     4      1   16733
                                             16 BANK0      5     4      1
                         _clcd_print
                         _clcd_putch
                       _clear_screen
 ---------------------------------------------------------------------------------
 (1) _login                                               10     9      1   25623
                                             16 BANK0     10     9      1
                            ___awdiv
                            ___awmod
                         _clcd_print
                         _clcd_putch
                         _clcd_write
                       _clear_screen
                        _read_EEPROM
                            _strncmp
 ---------------------------------------------------------------------------------
 (1) _log_event                                            5     4      1    8161
                                             14 BANK0      5     4      1
                            ___awdiv
                            ___awmod
                      _log_car_event
                            _strncpy
 ---------------------------------------------------------------------------------
 (2) _strncpy                                              9     5      4     780
                                              4 COMMON     3     3      0
                                              0 BANK0      6     2      4
 ---------------------------------------------------------------------------------
 (2) _log_car_event                                        3     3      0    1262
                                              4 BANK0      3     3      0
                             ___bmul
                   _str_write_EEPROM
 ---------------------------------------------------------------------------------
 (1) _str_write_EEPROM                                     4     2      2     552
                                              0 BANK0      4     2      2
                  _byte_write_EEPROM
 ---------------------------------------------------------------------------------
 (1) _init_config                                          0     0      0    4469
                           _init_adc
                          _init_clcd
                _init_digital_keypad
                        _init_ds1307
                           _init_i2c
                        _init_timer2
                          _init_uart
 ---------------------------------------------------------------------------------
 (2) _init_uart                                            8     4      4     722
                                             13 BANK0      8     4      4
                            ___lldiv
 ---------------------------------------------------------------------------------
 (2) _init_timer2                                          0     0      0       0
 ---------------------------------------------------------------------------------
 (2) _init_i2c                                             8     4      4     722
                                             13 BANK0      8     4      4
                            ___lldiv
 ---------------------------------------------------------------------------------
 (3) ___lldiv                                             14     6      8     601
                                              4 COMMON     1     1      0
                                              0 BANK0     13     5      8
 ---------------------------------------------------------------------------------
 (2) _init_ds1307                                          2     2      0     682
                                             22 BANK0      2     2      0
                        _read_ds1307
                       _write_ds1307
 ---------------------------------------------------------------------------------
 (1) _write_ds1307                                         2     1      1     453
                                              6 COMMON     1     1      0
                                             21 BANK0      1     0      1
                            _dec2bcd (ARG)
                          _i2c_start
                           _i2c_stop
                          _i2c_write
 ---------------------------------------------------------------------------------
 (2) _init_digital_keypad                                  0     0      0       0
 ---------------------------------------------------------------------------------
 (2) _init_clcd                                            0     0      0    2343
            _init_display_controller
 ---------------------------------------------------------------------------------
 (3) _init_display_controller                              2     2      0    2343
                                              1 BANK0      2     2      0
                         _clcd_write
 ---------------------------------------------------------------------------------
 (2) _init_adc                                             0     0      0       0
 ---------------------------------------------------------------------------------
 (1) _download_log                                         6     6      0    8497
                                              4 BANK0      6     6      0
                             ___bmul
                         _clcd_print
                            _putchar
                               _puts
                        _read_EEPROM
 ---------------------------------------------------------------------------------
 (2) _read_EEPROM                                          3     3      0     161
                                              0 BANK0      3     3      0
                           _i2c_read
                      _i2c_rep_start
                          _i2c_start
                           _i2c_stop
                          _i2c_write
 ---------------------------------------------------------------------------------
 (2) _puts                                                 2     0      2     186
                                              5 COMMON     2     0      2
                            _putchar
 ---------------------------------------------------------------------------------
 (3) _putchar                                              1     1      0      31
                                              4 COMMON     1     1      0
 ---------------------------------------------------------------------------------
 (2) ___bmul                                               4     3      1     676
                                              4 COMMON     2     1      1
                                              0 BANK0      2     2      0
 ---------------------------------------------------------------------------------
 (1) _display_dash_screen                                  5     4      1   27587
                                             18 BANK0      5     4      1
                            ___awdiv
                            ___awmod
                         _clcd_print
                         _clcd_putch
                       _display_time
 ---------------------------------------------------------------------------------
 (2) _display_time                                         2     2      0    7606
                                             16 BANK0      2     2      0
                         _clcd_putch
                           _get_time
 ---------------------------------------------------------------------------------
 (2) _get_time                                             1     1      0     161
                                              3 BANK0      1     1      0
                        _read_ds1307
 ---------------------------------------------------------------------------------
 (3) _read_ds1307                                          3     3      0     161
                                              0 BANK0      3     3      0
                           _i2c_read
                      _i2c_rep_start
                          _i2c_start
                           _i2c_stop
                          _i2c_write
 ---------------------------------------------------------------------------------
 (3) _i2c_rep_start                                        0     0      0       0
                          _i2c_start
                           _i2c_stop
 ---------------------------------------------------------------------------------
 (3) _i2c_read                                             3     3      0      65
                                              4 COMMON     3     3      0
                  _i2c_wait_for_idle
 ---------------------------------------------------------------------------------
 (1) _dec2bcd                                              7     7      0    5731
                                             14 BANK0      7     7      0
                            ___awdiv
                            ___awmod
 ---------------------------------------------------------------------------------
 (2) ___awmod                                              7     3      4    3313
                                              5 COMMON     1     1      0
                                              8 BANK0      6     2      4
                            ___awdiv (ARG)
 ---------------------------------------------------------------------------------
 (2) ___awdiv                                              9     5      4    2245
                                              4 COMMON     1     1      0
                                              0 BANK0      8     4      4
 ---------------------------------------------------------------------------------
 (1) _change_password                                      6     5      1   20171
                                             16 BANK0      6     5      1
                  _byte_write_EEPROM
                         _clcd_print
                         _clcd_putch
                         _clcd_write
                       _clear_screen
                            _strncmp
 ---------------------------------------------------------------------------------
 (2) _strncmp                                              6     3      3     624
                                              4 COMMON     3     0      3
                                              0 BANK0      3     3      0
 ---------------------------------------------------------------------------------
 (2) _clear_screen                                         2     2      0    2343
                                              1 BANK0      2     2      0
                         _clcd_write
 ---------------------------------------------------------------------------------
 (2) _clcd_putch                                           2     1      1    7445
                                             14 BANK0      2     1      1
                            ___awdiv (ARG)
                            ___awmod (ARG)
                         _clcd_write
 ---------------------------------------------------------------------------------
 (2) _clcd_print                                           3     0      3    6759
                                              1 BANK0      3     0      3
                         _clcd_write
 ---------------------------------------------------------------------------------
 (3) _clcd_write                                           4     3      1    2343
                                              4 COMMON     3     2      1
                                              0 BANK0      1     1      0
 ---------------------------------------------------------------------------------
 (2) _byte_write_EEPROM                                    2     1      1     273
                                              5 COMMON     2     1      1
                          _i2c_start
                           _i2c_stop
                          _i2c_write
 ---------------------------------------------------------------------------------
 (2) _i2c_write                                            1     1      0      31
                                              4 COMMON     1     1      0
                  _i2c_wait_for_idle
 ---------------------------------------------------------------------------------
 (2) _i2c_stop                                             0     0      0       0
                  _i2c_wait_for_idle
 ---------------------------------------------------------------------------------
 (2) _i2c_start                                            0     0      0       0
                  _i2c_wait_for_idle
 ---------------------------------------------------------------------------------
 (3) _i2c_wait_for_idle                                    0     0      0       0
 ---------------------------------------------------------------------------------
 (1) ___lwdiv                                              8     4      4     421
                                              6 COMMON     1     1      0
                                              2 BANK0      7     3      4
                           _read_adc (ARG)
 ---------------------------------------------------------------------------------
 Estimated maximum stack depth 3
 ---------------------------------------------------------------------------------
 (Depth) Function   	        Calls       Base Space   Used Autos Params    Refs
 ---------------------------------------------------------------------------------
 (8) _isr                                                  4     4      0       0
                                              0 COMMON     4     4      0
 ---------------------------------------------------------------------------------
 Estimated maximum stack depth 8
 ---------------------------------------------------------------------------------

 Call Graph Graphs:

 _main (ROOT)
   ___lwdiv
     _read_adc (ARG)
   _change_password
     _byte_write_EEPROM
       _i2c_start
         _i2c_wait_for_idle
       _i2c_stop
         _i2c_wait_for_idle
       _i2c_write
         _i2c_wait_for_idle
     _clcd_print
       _clcd_write
     _clcd_putch
       ___awdiv (ARG)
       ___awmod (ARG)
         ___awdiv (ARG)
       _clcd_write (ARG)
     _clcd_write
     _clear_screen
       _clcd_write
     _strncmp
   _clcd_print
   _clcd_putch
   _clcd_write
   _clear_screen
   _dec2bcd
     ___awdiv
     ___awmod
   _display_dash_screen
     ___awdiv
     ___awmod
     _clcd_print
     _clcd_putch
     _display_time
       _clcd_putch
       _get_time
         _read_ds1307
           _i2c_read
             _i2c_wait_for_idle
           _i2c_rep_start
             _i2c_start
             _i2c_stop
           _i2c_start
           _i2c_stop
           _i2c_write
   _download_log
     ___bmul
     _clcd_print
     _putchar
     _puts
       _putchar
     _read_EEPROM
       _i2c_read
       _i2c_rep_start
       _i2c_start
       _i2c_stop
       _i2c_write
   _init_config
     _init_adc
     _init_clcd
       _init_display_controller
         _clcd_write
     _init_digital_keypad
     _init_ds1307
       _read_ds1307
       _write_ds1307
         _dec2bcd (ARG)
         _i2c_start (ARG)
         _i2c_stop (ARG)
         _i2c_write (ARG)
     _init_i2c
       ___lldiv
     _init_timer2
     _init_uart
       ___lldiv
   _log_event
     ___awdiv
     ___awmod
     _log_car_event
       ___bmul
       _str_write_EEPROM
         _byte_write_EEPROM
     _strncpy
   _login
     ___awdiv
     ___awmod
     _clcd_print
     _clcd_putch
     _clcd_write
     _clear_screen
     _read_EEPROM
     _strncmp
   _login_menu
     _clcd_print
     _clcd_putch
     _clear_screen
   _read_adc
   _read_digital_keypad
   _set_time
     ___awdiv
     ___awmod
     ___bmul
     _clcd_print
     _clcd_putch
     _clear_screen
     _get_time
   _str_write_EEPROM
   _strcpy
   _view_log
     ___bmul
     _clcd_print
     _clcd_putch
     _clear_screen
     _read_EEPROM
   _write_ds1307

 _isr (ROOT)

 Address spaces:
Name               Size   Autos  Total    Cost      Usage
BANK3               60     21      21       9       34.4%
BITBANK3            60      0       0       8        0.0%
SFR3                 0      0       0       4        0.0%
BITSFR3              0      0       0       4        0.0%
BANK2               60      0       0      11        0.0%
BITBANK2            60      0       0      10        0.0%
SFR2                 0      0       0       5        0.0%
BITSFR2              0      0       0       5        0.0%
BANK1               50      0      42       7       82.5%
BITBANK1            50      0       0       6        0.0%
SFR1                 0      0       0       2        0.0%
BITSFR1              0      0       0       2        0.0%
BANK0               50     1E      34       5       65.0%
BITBANK0            50      0       0       4        0.0%
SFR0                 0      0       0       1        0.0%
BITSFR0              0      0       0       1        0.0%
COMMON               E      7       A       1       71.4%
BITCOMMON            E      0       0       0        0.0%
CODE                 0      0       0       0        0.0%
DATA                 0      0      A1      12        0.0%
ABS                  0      0      A1       3        0.0%
NULL                 0      0       0       0        0.0%
STACK                0      0       0       2        0.0%
EEDATA             100      0       0       0        0.0%


Microchip Technology PIC Macro Assembler V2.32 build 20210201212658 
Symbol Table                                                                                   Sun Mar 19 15:07:45 2023

                               pc 0002                    ___bmul@product 0020                    clcd_print@addr 0023  
__size_of_init_display_controller 0071                                l20 07F2                                l23 1171  
                              l32 12E3                                l17 13B9                                l26 1F96  
                              l52 134C                                l55 1191                                l49 1FE1  
                              l90 07FF                                l84 1317                                l93 1F14  
                              l87 07F3                                l96 1F3D                                _GO 00FA  
                              l99 1F1D                      ___awdiv@sign 0025                                fsr 0004  
               log_car_event@addr 0026             byte_write_EEPROM@addr 0076             byte_write_EEPROM@data 0075  
              login_menu@menu_pos 004B                               l102 11D1                               l103 11D4  
                             l104 11D6                               l201 0231                               l107 1F32  
                             l220 0343                               l230 0400                               l232 0402  
                             l224 038B                               l226 03BF                               l243 1166  
                             l227 03DF                               l228 03F1                               l501 1F5A  
                             l414 0E00                               l504 14AC                               l352 17FF  
                             l360 13F1                               l249 124D                               l442 0FFF  
                             l266 1381                               l290 1F03                               l178 142B  
                             l355 1667                               l515 1F27                               l275 127E  
                             l363 1604                               l269 1FFF                               l349 11B3  
                             l293 1F71                               l374 0C3D                               l462 05C2  
                             l552 12B0                               l296 1F81                               l562 1F43  
                             l570 11FC                               l394 091B                               l563 1F47  
                             l564 1F48                               l822 15A6                               l494 0A87  
                             l486 06FE                               l488 0781                               l809 1738  
                             l682 1FAD                               l692 16CF                               l928 14F2  
                             _GIE 005F                               _RE1 0049                               _RE2 004A  
                             _PR2 0092                               _PEN 048A                               _SEN 0488  
                   ?_display_time 0070                               _min 004E                               _log 00AB  
                             _sec 004F                               _isr 14F3                    clcd_putch@addr 002E  
                             _pos 0077                               fsr0 0004                    clcd_putch@data 002F  
                             indf 0000                      ___awmod@sign 002D         __size_of_str_write_EEPROM 0031  
              view_log@reset_flag 0033                              l1110 1223                              l1113 145B  
                            l1118 146B                              l1129 0848             ??_read_digital_keypad 0074  
                            l4111 1398                              l4103 1385                              l4121 13B0  
                            l4113 139B                              l4105 138F                              l5001 0EE1  
                            l4201 16B7                              l4115 13A7                              l4107 1392  
                            l5003 0EE2                              l5011 0F09                              l4123 131B  
                            l4131 0782                              l4211 1167                              l4203 16B8  
                            l4117 13A8                              l4109 1393                              l4221 12BB  
                            l5013 0F11                              l5021 0F2F                              l5005 0EEF  
                            l4125 1349                              l4141 07B4                              l4133 078D  
                            l4213 116A                              l4205 16C1                              l4301 13C9  
                            l4071 1F0C                              l4119 13AD                              l4223 12CB  
                            l5023 0F35                              l5031 0F52                              l5015 0F17  
                            l5007 0EFB                              l4151 07E4                              l4143 07B7  
                            l4135 0794                              l4215 116B                              l4231 1FD7  
                            l4207 16C7                              l4303 13DB                              l4073 1F11  
                            l4081 1F2E                              l4129 1FE3                              l4225 12D3  
                            l5041 0F90                              l5033 0F5A                              l5025 0F3B  
                            l5017 0F1F                              l5009 0F02                              l4401 155A  
                            l4241 1EFD                              l4153 07EB                              l4145 07BE  
                            l4137 07A6                              l4217 116C                              l4233 12E4  
                            l4161 1252                              l4305 13E5                              l4067 07F3  
                            l4075 1F15                              l4083 1F32                              l4219 12B1  
                            l4155 1F85                              l4331 1444                              l5051 0FA7  
                            l5035 0F6E                              l5027 0F43                              l5019 0F23  
                            l4411 1573                              l4403 155E                              l4091 11BA  
                            l4171 1F3F                              l4147 07CC                              l4139 07AD  
                            l4227 1FC7                              l4235 12E7                              l4243 1F1E  
                            l4251 1283                              l4163 1264                              l4307 13EB  
                            l4069 07F9                              l4077 1F1A                              l4253 1F49  
                            l4325 142F                              l5061 0FC9                              l5053 0FAD  
                            l5037 0F7A                              l5029 0F47                              l4421 1592  
                            l4413 1577                              l4405 1563                              l4093 11C2  
                            l4181 1FA5                              l4173 1F9A                              l4341 11D7  
                            l4149 07D3                              l4157 1173                              l4229 1FD2  
                            l4237 1314                              l4245 1F22                              l4165 126C  
                            l4501 1F6E                              l4079 1F29                              l4255 1F50  
                            l4335 1453                              l4327 1430                              l5063 0FD0  
                            l5047 0F93                              l5039 0F81                              l4351 16D3  
                            l4415 157B                              l4407 1569                              l4423 1598  
                            l4095 11C8                              l4087 1F33                              l4271 176C  
                            l4263 1739                              l4511 161A                              l4183 1FAC  
                            l4175 1F9B                              l4343 11D8                              l4239 1161  
                            l4191 167D                              l4247 1F26                              l4431 13F2  
                            l4167 1270                              l4159 1251                              l4503 1F75  
                            l5081 14B7                              l4337 1469                              l4329 1438  
                            l5065 0FDF                              l5049 0FA1                              l5073 0FFE  
                            l4361 16E7                              l4353 16D7                              l4425 159D  
                            l4417 1585                              l4409 156C                              l4097 11CD  
                            l4089 11B5                              l4169 1192                              l4281 17A1  
                            l4273 1776                              l4265 173E                              l4177 1F9F  
                            l4345 11E6                              l4257 1350                              l4193 168A  
                            l4249 127F                              l4441 142A                              l4433 1410  
                            l4601 0BF7                              l4521 0AA8                              l4513 0A8B  
                            l5091 14DA                              l5083 14BA                              l5067 0FEE  
                            l5059 0FBD                              l4371 16FD                              l4363 16EB  
                            l4355 16DC                              l4427 15A2                              l4419 158B  
                            l4099 11D5                              l4291 17E3                              l4283 17AF  
                            l4275 1788                              l4267 1750                              l4507 1608  
                            l4179 1FA3                              l4347 11EC                              l4259 137E  
                            l4195 168E                              l4187 1668                              l4435 1415  
                            l4611 0C2C                              l4603 0C05                              l4531 0AC0  
                            l4523 0AB0                              l4515 0A91                              l4451 122F  
                            l4443 1225                              l5093 14E0                              l5085 14C1  
                            l5077 14AD                              l5069 0FFC                              l4381 171D  
                            l4373 1701                              l4365 16ED                              l4357 16DE  
                            l4349 16D0                              l4293 17F1                              l4285 17BB  
                            l4277 1792                              l4269 175A                              l4509 1615  
                            l4197 1697                              l4189 167A                              l4437 141A  
                            l4613 0C33                              l4605 0C0A                              l4541 0AE4  
                            l4533 0AC8                              l4517 0A97                              l4621 084C  
                            l4453 123A                              l4445 122A                              l5095 14E1  
                            l5087 14C5                              l5079 14B1                              l4383 1724  
                            l4375 1705                              l4367 16F3                              l4359 16E2  
                            l4287 17C9                              l4279 1793                              l4199 16A9  
                            l4439 1429                              l4295 13BA                              l4615 0C36  
                            l4607 0C19                              l4543 0AEA                              l4551 0B02  
                            l4535 0ACC                              l4527 0AB2                              l4519 0A9D  
                            l4623 0852                              l4631 0864                              l4455 123F  
                            l4463 1241                              l4471 1200                              l4703 0C99  
                            l4711 0CAF                              l5097 14E8                              l5089 14C9  
                            l4377 1716                              l4369 16F6                              l4385 172A  
                            l4393 154C                              l4289 17D7                              l4297 13C0  
                            l4609 0C25                              l4561 0B19                              l4553 0B09  
                            l4617 0C3C                              l4545 0AF2                              l4537 0AD7  
                            l4529 0ABA                              l4641 087C                              l4633 086C  
                            l4625 0853                              l4465 124A                              l4801 04EA  
                            l4473 1205                              l4721 0CEE                              l4713 0CB7  
                            l4705 0C9F                              l5601 012F                              l5099 14EE  
                            l4387 172F                              l4379 171C                              l4395 154F  
                            l4491 1471                              l4299 13C7                              l5531 0810  
                            l4563 0B1D                              l4547 0AF6                              l4539 0ADE  
                            l4651 0897                              l4643 0880                              l4627 0858  
                            l4467 124C                              l4811 052C                              l4803 04F8  
                            l4475 1209                              l4731 0D2A                              l4723 0CF8  
                            l4715 0CC4                              l4707 0CAD                              l5611 0154  
                            l5603 013E                              l4389 1734                              l4397 1553  
                            l4493 1487                              l5541 083A                              l4581 0B64  
                            l4573 0B39                              l4565 0B23                              l4661 08AB  
                            l4645 0885                              l4637 086E                              l4629 085E  
                            l4901 0777                              l4813 053A                              l4805 0504  
                            l4821 0589                              l4477 120F                              l4741 0D66  
                            l4733 0D34                              l4725 0D06                              l4717 0CD6  
                            l5701 0291                              l5621 0185                              l5613 0163  
                            l5605 0143                              l4399 1558                              l4495 149D  
                            l4903 091F                              l5535 082B                              l5527 0805  
                            l5551 15FF                              l5543 15AA                              l4591 0BC1  
                            l4583 0B73                              l4575 0B42                              l4567 0B37  
                            l4559 0B0A                              l4671 0901                              l4663 08C2  
                            l4639 0876                              l4647 088C                              l4831 05A0  
                            l4823 058F                              l4815 0548                              l4807 0512  
                            l4751 0DA2                              l4743 0D70                              l4735 0D42  
                            l4727 0D10                              l4719 0CE1                              l5711 02AE  
                            l5703 0299                              l5631 01AA                              l5623 018D  
                            l5615 016F                              l5607 0149                              l4497 14AA  
                            l4489 146F                              l4921 0958                              l4905 0927  
                            l5537 0832                              l5529 080A                              l5545 15C8  
                            l4593 0BC2                              l4585 0B79                              l4577 0B4E  
                            l4673 0918                              l4665 08DA                              l4649 0892  
                            l4657 089A                              l4841 05B6                              l4833 05A5  
                            l4825 0594                              l4817 055F                              l4809 0520  
                            l4761 0DDE                              l4753 0DAC                              l4745 0D7E  
                            l4737 0D4C                              l4729 0D1C                              l4681 0C57  
                            l5721 02E0                              l5713 02BB                              l5641 01C6  
                            l5633 01AD                              l5617 0176                              l5609 014F  
                            l5625 0191                              l5561 0079                              l5553 0048  
                            l4931 0A80                              l4923 0967                              l4907 0934  
                            l4915 0944                              l5539 0836                              l5547 15E3  
                            l4587 0B7E                              l4579 0B55                              l4595 0BC7  
                            l4667 08E0                              l4659 08A1                              l4851 05CE  
                            l4843 05BA                              l4835 05A9                              l4827 0598  
                            l4819 0574                              l4771 0469                              l4763 0DE8  
                            l4755 0DBA                              l4747 0D88                              l4739 0D58  
                            l4691 0C7D                              l4683 0C5D                              l5731 032B  
                            l5723 02F3                              l5715 02BD                              l5707 02A2  
                            l5643 01CB                              l5635 01BB                              l5627 0197  
                            l5619 017D                              l5571 0083                              l5563 007B  
                            l5555 004C                              l4941 0E04                              l4925 096D  
                            l4917 094A                              l4909 0942                              l5549 15FE  
                            l4597 0BCC                              l4589 0BBA                              l4669 08EA  
                            l4861 05DD                              l4853 05CF                              l4845 05C0  
                            l4837 05AF                              l4829 059E                              l4781 0473  
                            l4773 046B                              l4765 0DF6                              l4757 0DC4  
                            l4749 0D94                              l4693 0C83                              l4685 0C5E  
                            l4677 0C41                              l5733 0334                              l5717 02C5  
                            l5709 02A8                              l5653 01F8                              l5645 01DA  
                            l5637 01C1                              l5629 019D                              l5581 00B0  
                            l5573 0085                              l5565 007D                              l5557 0064  
                            l4951 0E30                              l4943 0E0A                              l4919 094B  
                            l4927 0976                              l4599 0BDB                              l4871 05F0  
                            l4863 05E2                              l4855 05D3                              l4839 05B1  
                            l4847 05C3                              l4791 04B5                              l4783 0482  
                            l4775 046C                              l4767 045F                              l4759 0DD0  
                            l4695 0C89                              l4687 0C63                              l4679 0C49  
                            l5751 03B1                              l5743 036A                              l5735 034A  
                            l5719 02CD                              l5671 024B                              l5639 01C5  
                            l5663 0216                              l5591 0100                              l5727 0307  
                            l5583 00B6                              l5575 008A                              l5567 007F  
                            l5559 0067                              l4961 0E58                              l4953 0E3C  
                            l4945 0E18                              l4937 0A86                              l4929 097E  
                            l4881 064E                              l4873 0634                              l4865 05E4  
                            l4857 05D8                              l4849 05C9                              l4793 04BF  
                            l4785 0487                              l4777 046D                              l4769 0465  
                            l4697 0C91                              l4689 0C6B                              l5761 03CE  
                            l5753 03B7                              l5745 038C                              l5737 0351  
                            l5729 0325                              l5681 025B                              l5673 024E  
                            l5657 0207                              l5649 01E9                              l5665 0232  
                            l5593 0109                              l5585 00CF                              l5577 0096  
                            l5569 0081                              _ADFM 04FF                              l4971 0E7B  
                            l4963 0E60                              l4955 0E43                              l4947 0E1C  
                            l4891 06AC                              l4883 0692                              l4859 05DA  
                            l4867 05E6                              l4795 04D1                              l4787 0499  
                            l4779 046E                              l4699 0C96                              l5763 03E0  
                            l5755 03B9                              l5747 0393                              l5739 0359  
                            l5683 0261                              l5675 0252                              l5667 0238  
                            l5595 010F                              l5587 00D5                              l5579 00A3  
                            ?_isr 0070                              l4981 0E9F                              l4973 0E80  
                            l4965 0E64                              l4949 0E21                              l4957 0E4A  
                            l4893 06F0                              l4877 0642                              l4869 05EB  
                            l4797 04DB                              l4789 04A3                              l5765 03F2  
                            l5757 03C0                              l5749 039A                              l5781 042F  
                            l5685 026E                              l5693 0276                              l5669 023E  
                            l5597 0115                              l5589 00DE                              l4991 0EC2  
                            l4983 0EA7                              l4975 0E8E                              l4967 0E6F  
                            l4959 0E52                              l4887 06A0                              l4879 0649  
                            l4799 04DC                              l5759 03C7                              l5783 0450  
                            l5695 027C                              l5687 0271                              l5679 0255  
                            l5599 011B                              l4993 0EC7                              l4985 0EAB  
                            l4969 0E77                              l4977 0E93                              l4897 076A  
                            l4889 06A7                              l5769 0406                              l5777 040E  
                            l5697 0282                              l4987 0EB6                              l4979 0E99  
                            l4899 0776                              l5699 028F                              l4989 0EBE  
                            l4997 0ED6                              l5981 0427                              l4999 0EDC  
                            l5983 0439                              l5977 0220                              l5979 0383  
                            _ADON 00F8                              STR_1 115B                              STR_2 115E  
                            STR_3 114F                              STR_4 1152                              STR_5 1155  
                            STR_6 1158                              STR_7 1147                              STR_8 114C  
                            STR_9 1069                              _CREN 00C4                              u4000 0AC0  
                            u4001 0ABF                              u4010 0AE4                              u4011 0AE3  
                            u4020 0AEA                              u4100 0876                              u4021 0AE9  
                            u4101 0875                              u4030 0B09                              u4110 087C  
                            u4031 0B08                              u4111 087B                              u3400 07FF  
                            u4040 0B23                              u4120 0892                              u4200 0C91  
                            u3401 07FE                              u4041 0B22                              u4121 0891  
                            u4201 0C90                              u3410 11CD                              u4050 0B37  
                            u4130 0897                              u4210 0C96                              u3411 11CC  
                            u4051 0B36                              u4131 0896                              u4211 0C95  
                            u3420 138C                              u5020 082A                              u4060 0B42  
                            u4140 08A1                              u4300 0594                              u4220 0C9F  
                            u5100 0115                              u3421 1388                              u5021 0829  
                            u4061 0B41                              u4141 08A0                              u4301 0593  
                            u4221 0C9E                              u5101 0114                              u3510 168E  
                            u5030 0831                              u4070 0BC1                              u4150 08E0  
                            u4310 059E                              u4230 0CAD                              u5110 0143  
                            u3511 168D                              u5031 0830                              u4071 0BC0  
                            u4151 08DF                              u4311 059D                              u4231 0CAC  
                            u5111 0142                              u5040 0848                              u4080 0852  
                            u4400 05EB                              u4320 05A5                              u4240 0CB7  
                            u4160 0C49                              u5200 025B                              u5120 0149  
                            u3505 167F                              u5041 0847                              u4081 0851  
                            u4401 05EA                              u4321 05A4                              u4241 0CB6  
                            u4161 0C48                              u5201 025A                              u5121 0148  
                            u3434 138F                              u3530 16A9                              u3450 127E  
                            u4090 086C                              u4410 05F0                              u4330 05AF  
                            u4250 0465                              u4170 0C5D                              u5210 0261  
                            u5130 014F                              u5050 0056                              u3531 16A8  
                            u3451 127D                              u4091 086B                              u4411 05EF  
                            u4331 05AE                              u4251 0464                              u4171 0C5C  
                            u5211 0260                              u5131 014E                              u3460 1F47  
                            u3700 11FC                              u4500 094A                              u3620 13C7  
                            u4420 0649                              u4340 05B6                              u4180 0C6B  
                            u5300 03B7                              u5220 026E                              u5140 0197  
                            u5060 00B6                              u3445 139F                              u3605 175F  
                            u3461 1F46                              u3701 11FB                              u4501 0949  
                            u3525 1690                              u3621 13C6                              u4421 0648  
                            u4341 05B5                              u4181 0C6A                              u5301 03B6  
                            u5221 026D                              u5141 0196                              u5061 00B5  
                            u3390 07F9                              u3710 16D7                              u3470 1F9F  
                            u4510 097E                              u3550 16C7                              u3630 13EB  
                            u4430 064E                              u4350 05C0                              u4190 0C7D  
                            u5310 03FF                              u5230 027C                              u5150 019D  
                            u5070 00D5                              u3391 07F8                              u3711 16D6  
                            u3615 177B                              u3471 1F9E                              u4511 097D  
                            u3551 16C6                              u3535 16A5                              u3631 13EA  
                            u4431 064D                              u4351 05BF                              u4191 0C7C  
                            u5311 03FE                              u5231 027B                              u5151 019C  
                            u5071 00D4                              u3560 12E3                              u4600 0EE1  
                            u4520 0E0A                              u3800 172F                              u3720 16E2  
                            u3480 1FAC                              u4440 06A7                              u4360 05C9  
                            u5240 0282                              u5160 01AA                              u5080 00DE  
                            u3561 12E2                              u4601 0EE0                              u4521 0E09  
                            u3801 172E                              u3721 16E1                              u3481 1FAB  
                            u3545 16B9                              u4441 06A6                              u4361 05C8  
                            u4265 048C                              u5241 0281                              u5161 01A9  
                            u5081 00DD                              u4610 0F11                              u4530 0E52  
                            u3730 16F3                              u3810 1553                              u3490 167A  
                            u3570 12F5                              u4450 06AC                              u4370 05CE  
                            u4290 058F                              u5250 028F                              u5170 0238  
                            u5090 010F                              u4611 0F10                              u4531 0E51  
                            u3731 16F2                              u3811 1552                              u3491 1679  
                            u4451 06AB                              u4371 05CD                              u4291 058E  
                            u4275 04A8                              u4195 0C79                              u5251 028E  
                            u5171 0237                              u5091 010E                              _PEIE 005E  
                            u4700 14C9                              u4620 0F17                              u4540 0E58  
                            u3820 155E                              u3580 1291                              u3900 122A  
                            u4460 0776                              u4380 05D8                              u5260 02A8  
                            u5180 023E                              u4701 14C8                              u4621 0F16  
                            u4541 0E57                              u3821 155D                              u3901 1229  
                            u4461 0775                              u4381 05D7                              u4285 04C4  
                            u5261 02A7                              u5181 023D                              u3670 1438  
                            u4630 0F35                              u4550 0E77                              u3750 1705  
                            u3830 1569                              u3910 123A                              u4470 077D  
                            u4390 05E2                              u5270 02AE                              u5190 024B  
                            u3671 1437                              u4631 0F34                              u4551 0E76  
                            u3751 1704                              u3831 1568                              u5407 0788  
                            u3575 12F0                              u3911 1239                              u4471 077B  
                            u4391 05E1                              u5271 02AD                              u5191 024A  
                            u5327 017A                              u4720 14DA                              u3680 1444  
                            u4640 0F3B                              u4560 0E99                              u3920 123F  
                            u4480 077E                              u5280 02BB                              u4721 14D9  
                            u3681 1443                              u4641 0F3A                              u4561 0E98  
                            u3745 16F7                              u5417 079A                              u3585 128C  
                            u3921 123E                              u5281 02BA                              u5337 01E2  
                            u3690 1469                              u4650 0F5A                              u4570 0E9F  
                            u3770 1716                              u3850 157B                              u4490 0927  
                            u3930 124A                              u5290 032B                              u4715 14CA  
                            u3691 1468                              u4651 0F59                              u5507 0ED2  
                            u4571 0E9E                              u3771 1715                              u3851 157A  
                            u3595 1743                              u4491 0926                              u5427 07AA  
                            u3931 1249                              u5347 0355                              u5291 032A  
                            u4740 14EE                              u4660 0F6E                              u4580 0EBE  
                            u3860 1585                              u3940 1223                              _RCEN 048B  
                            _RCIF 0065                              u4741 14ED                              u4725 14D6  
                            u4661 0F6D                              u5517 0F06                              u4581 0EBD  
                            u3765 1706                              u3861 1584                              u3845 156D  
                            u5437 07C2                              u3941 1222                              u5357 0397  
                            u4670 0FAD                              u4590 0EDC                              u3790 172A  
                            u4735 14E2                              u4671 0FAC                              u5527 0F7E  
                            u4591 0EDB                              u3791 1729                              u3775 1712  
                            u5447 07D0                              u5367 03CB                              u4680 14B7  
                            u3880 1598                              u3960 1F75                              u4681 14B6  
                            u5537 0FB5                              u3785 171E                              u3881 1597  
                            u3865 1581                              u5457 07E0                              u5377 0B52  
                            u3961 1F74                              u3890 159D                              u3970 0A91  
                            u5547 0FCD                              u3891 159C                              u3875 158C  
                            u3955 14A0                              u5467 07EF                              u5387 0BFF  
                            u3971 0A90                              u3980 0AB0                              u5557 0FF6  
                            u5477 093C                              u5397 0C30                              u3981 0AAF  
                            u3990 0ABA                              u4695 14BB                              u5567 1F56  
                            u5487 0E47                              u3991 0AB9                              u5577 1395  
                            u5497 0E8B                              u5587 13AA                              u5597 13B4  
                            _SPEN 00C7                              _TXIF 0064                              _R_nW 04A2  
                            _main 0048                              _menu 00D5                              _hour 0050  
                  log_event@event 0032                              _time 00B6                              btemp 007E  
                            _puts 11D7                    log_event@speed 002E                              start 0010  
                    ?_read_EEPROM 0070                 ___bmul@multiplier 0021                    clcd_write@byte 0020  
                  clcd_write@mode 0074                     _i2c_rep_start 1F33                             ??_isr 0070  
                    ?_init_ds1307 0070                             ?_main 0070                   __end_of_dec2bcd 14AD  
                    ?_read_ds1307 0070                             _ACKEN 048C                             _ACKDT 048D  
                  ??_display_time 0030                   __end_of___awdiv 1739                             STR_10 111E  
                           STR_11 113E                             STR_20 10D9                             STR_12 112B  
                           STR_21 1069                             STR_13 1104                             STR_30 1111  
                           STR_22 1111                             STR_14 1135                             STR_31 10AA  
                           STR_23 1047                             STR_15 10F6                             STR_24 1069  
                           STR_32 109A                             STR_16 1036                             STR_17 108A  
                           STR_33 1013                             STR_25 1000                             STR_18 10BA  
                           STR_26 1058                             STR_19 10CA                             STR_27 107A  
                           STR_28 10E8                   __end_of___awmod 15A7                             STR_29 1025  
                           ?_puts 0075                   __end_of___lldiv 16D0                       i2c_read@ack 0075  
                 ___awdiv@divisor 0020                   __end_of___lwdiv 14F3                             i1l532 1513  
                           i1l535 1543                      ?_init_config 0070                   ___awdiv@counter 0024  
                           _RCREG 001A                             _SPBRG 0099                             _PORTB 0006  
                           _PORTD 0008                             _SSPM3 00A3                             _TRISB 0086  
                           _TRISD 0088                             _SSPEN 00A5                             _TXREG 0019  
                    ?_init_timer2 0070                      main@menu_pos 01A6                             _nDONE 00FA  
            __end_of_clear_screen 1F5B                             _login 0A88                   _change_password 0E01  
     __end_of_display_dash_screen 1668                             pclath 000A              login_menu@reset_flag 0034  
                           puts@s 0075                   __end_of_putchar 1F49                             status 0003  
                           wtemp0 007E                   __end_of_strncmp 146C                   __end_of_strncpy 0849  
                init_ds1307@dummy 0037             __size_of_write_ds1307 0020                   __initialization 0013  
                  ?_i2c_rep_start 0070                      __end_of_main 045C                      __end_of_puts 11FD  
                __end_of_i2c_read 11D7                  __end_of_i2c_stop 1F1E                     ?_download_log 0070  
                          ??_main 003A                            ??_puts 0077                            _ADRESH 001E  
                          ?_login 0030                            _ADRESL 009E                  ___awdiv@dividend 0022  
                    i2c_read@data 0076         change_password@re_npasswd 00BD                            i1l3931 1511  
                          i1l3923 14F3                            i1l3941 153B                            i1l3933 1518  
                          i1l3925 14F7                            i1l3943 153D                            i1l3935 1527  
                          i1l3927 1508                            i1l3937 152F                            i1l3929 150A  
                          i1l3945 1541                            i1l3939 1536                            u332_20 14F7  
                          u332_21 14F6                            u333_20 1508                            u333_21 1507  
                          u334_20 1511                            u334_21 1510                            u335_20 1518  
                          u335_21 1517                            u336_20 1527                            u336_21 1526  
                          u336_25 1523                            u337_20 1536                            u337_21 1535  
                          u338_20 153B                            u338_21 153A                      _write_ds1307 1172  
                          _TMR2IE 0461                            _TMR2IF 0061                            _TMR2ON 0092  
                          _SSPADD 0093                            _TRISE1 0449                            _TRISE2 044A  
                          _SSPBUF 0013                __size_of_i2c_start 0009                     login_menu@key 0030  
                   main@key_level 01AC                __size_of_i2c_write 000B       __end_of_init_digital_keypad 1167  
                __end_of_get_time 11B4                            ___bmul 1F97           _init_display_controller 0782  
                          _access 0079                         ??_dec2bcd 002E                         ??___awdiv 0074  
                       ??___awmod 0075                         ??___lldiv 0074         change_password@reset_flag 0034  
                       ??___lwdiv 0076                  __end_of_init_i2c 1318                  __end_of_init_adc 1F04  
                __end_of_read_adc 1F82                    ??_download_log 0024                  ___awdiv@quotient 0026  
                          _minute 0051                            _second 0052                   ___awmod@divisor 0028  
                 ___awmod@counter 002C                            main@gr 01AA                            _strcpy 11FD  
                    __pdataCOMMON 0077                            login@i 004C                            login@j 0039  
         __end_of_change_password 1000                  __end_of_set_time 0782                  _str_write_EEPROM 124E  
                          saved_w 007E                  __end_of_view_log 0E01            __size_of_log_car_event 0038  
                       ??_putchar 0074                         ??_strncmp 0020                         ??_strncpy 0074  
         __end_of__initialization 0044              __end_of_display_time 1800                   ??_i2c_rep_start 0074  
             ___bmul@multiplicand 0074                    __pcstackCOMMON 0070                      __pidataBANK0 0003  
                    __pidataBANK1 1FAE              __size_of_read_EEPROM 0035                     __end_of_login 0C3E  
                      dec2bcd@num 0034             __size_of_clear_screen 0012                   login@reset_flag 0038  
            __size_of_init_ds1307 001B                 __end_of_i2c_start 1F15                 __end_of_i2c_write 1F33  
            __size_of_read_ds1307 0035              __size_of_init_config 003A                 _i2c_wait_for_idle 07F3  
            __size_of_init_timer2 000A                           ??_login 0031                ?_i2c_wait_for_idle 0070  
                      __pbssBANK0 003E                        __pbssBANK1 00A0                         ?_i2c_read 0070  
                       ?_i2c_stop 0070                __size_of_init_clcd 000B                __size_of_init_uart 0032  
       ??_init_display_controller 0021                        _clcd_print 12B1               ??_i2c_wait_for_idle 0074  
                      _clcd_putch 1F82                        _clcd_write 1382                __size_of_log_event 005E  
                      __pmaintext 0048                   read_ds1307@addr 0021                     _log_car_event 13BA  
                 read_ds1307@data 0022                      _clear_screen 1F49                           ?___bmul 0074  
                      __pintentry 0004                           _ACKSTAT 048E               set_time@minute_flag 0045  
             set_time@second_flag 0046                           ?_strcpy 0074                           _T2CKPS0 0090  
                         _T2CKPS1 0091       __end_of_read_digital_keypad 124E                  ?_change_password 0030  
       __end_of_i2c_wait_for_idle 0800                      init_i2c@baud 002D                           _SSPCON2 0091  
                       ?_get_time 0070                        __stringtab 1800                        ??_i2c_read 0074  
                      ??_i2c_stop 0074                         ?_init_i2c 002D              __end_of_download_log 0A88  
                       ?_init_adc 0070                         ?_read_adc 0074                    ?_log_car_event 0070  
                       ?_set_time 0030                change_password@key 0030                   __size_of___bmul 0017  
                         _dec2bcd 146C                           ___awdiv 16D0                           ___awmod 154C  
                       ?_view_log 0030                           ___lldiv 1668                           ___lwdiv 14AD  
                set_time@new_time 00A0                  main@control_flag 01B0                           __ptext1 0C3E  
                         __ptext2 11FD                           __ptext3 045C                           __ptext4 1224  
                         __ptext5 1F6E                           __ptext6 0849                           __ptext7 0A88  
                         __ptext8 15A7                           __ptext9 0802                  login@attempt_rem 004D  
                 __size_of_strcpy 0027   __end_of_init_display_controller 07F3                 __end_of_init_clcd 1172  
                    __size_of_isr 0059                 __end_of_init_uart 12B1                  ___awmod@dividend 002A  
                  main@reset_flag 01AE                 __end_of_log_event 1605                        _login_menu 0849  
                         _putchar 1F3E                           main@key 01AF                           clrloop0 1F05  
                      ??_get_time 0023                           _strncmp 142C                           _strncpy 0802  
           __size_of_display_time 00C7              end_of_initialization 0044                       set_time@key 0030  
                      ??_init_i2c 0031            change_password@npasswd 00C1                        ??_init_adc 0074  
                      ??_read_adc 0076                       ?_clcd_print 0021                       ?_clcd_putch 002E  
                 ___lldiv@divisor 0020                       ?_clcd_write 0074                   ___lldiv@counter 002C  
        __end_of_str_write_EEPROM 127F      __size_of_display_dash_screen 0063                        ??_set_time 0031  
                      ??_view_log 0031                      __pstringtext 1000                      _display_time 1739  
      __size_of_i2c_wait_for_idle 000D                     i2c_write@data 0074                    download_log@ch 0029  
                   clcd_print@str 0021                        main@delay1 019C                        main@delay2 019E  
                      main@delay3 01A0                        main@delay4 01A2                        main@delay5 01A4  
                 ??_log_car_event 0024                      login@npasswd 00C5                      login@spasswd 0034  
                  __end_of___bmul 1FAE      __size_of_init_digital_keypad 0006                     __pidataCOMMON 0800  
                     view_log@key 0030                       dec2bcd@ones 0031                       dec2bcd@temp 0033  
                     dec2bcd@tens 0032                    __end_of_strcpy 1224               start_initialization 0013  
             __size_of_clcd_print 0033                       ?_login_menu 0030               __size_of_clcd_putch 0015  
             __size_of_clcd_write 0038                         _i2c_start 1F0C                       __end_of_isr 154C  
                       _i2c_write 1F28             __size_of_download_log 016C                 __size_of_i2c_read 0023  
               __size_of_i2c_stop 0009                     ??_read_EEPROM 0020                       putchar@data 0074  
                change_password@i 0049                  change_password@j 0048                  change_password@k 0035  
           __end_of_i2c_rep_start 1F3E                          ??___bmul 0075                        init_fetch0 1F5B  
                   ??_init_ds1307 0036                       __pdataBANK0 0053                       __pdataBANK1 00C9  
                   ??_read_ds1307 0020                      _download_log 091C                          ??_strcpy 0076  
                   ??_init_config 0077                     ??_init_timer2 0074                       __pbssCOMMON 0079  
                       ___latbits 0002                     __pcstackBANK0 0020                     __pcstackBANK3 0190  
                      ?_i2c_start 0070                        ?_i2c_write 0070                 __size_of_get_time 0022  
               __size_of_init_i2c 0034                   read_EEPROM@addr 0021                 __size_of_init_adc 0007  
                 read_EEPROM@data 0022                 __size_of_read_adc 0014                  ___lwdiv@dividend 0024  
             __size_of_login_menu 00D3                          ?_dec2bcd 0070                          ?___awdiv 0020  
                        ?___awmod 0028                          ?___lldiv 0020                          ?___lwdiv 0022  
                       _clock_reg 003E                 __size_of_set_time 0326               __end_of_read_EEPROM 1382  
               __size_of_view_log 01C3                         __pstrings 1800                set_time@reset_flag 0034  
             __end_of_init_ds1307 1FE2               read_adc@adc_reg_val 0020               _display_dash_screen 1605  
             __end_of_read_ds1307 134D                  ___lwdiv@quotient 0027                          ?_putchar 0070  
                       _init_clcd 1167               __end_of_init_config 142C                         _init_uart 127F  
                  __size_of_login 01B6                          ?_strncmp 0074                          ?_strncpy 0020  
                       _log_event 15A7      __size_of_read_digital_keypad 002A                     ?_write_ds1307 0035  
             __end_of_init_timer2 1F28          ?_init_display_controller 0070          __size_of_change_password 01FF  
               interrupt_function 0004                         clear_ram0 1F04                       strncpy@from 0020  
                     strncpy@size 0022                      ??_clcd_print 0077                      ??_clcd_putch 0077  
                    ??_clcd_write 0075              ?_display_dash_screen 0032                 ?_str_write_EEPROM 0020  
                       main@F1020 00DF                         main@F1017 00C9                ??_str_write_EEPROM 0022  
                   download_log@i 0028                       __stringbase 1812                         main@event 01A7  
                       main@speed 01AD                       ??_i2c_start 0074                __end_of_clcd_print 12E4  
                     ??_i2c_write 0074                __end_of_clcd_putch 1F97                __end_of_clcd_write 13BA  
                      ?_init_clcd 0070                        ?_init_uart 002D          display_dash_screen@event 0036  
                  ??_write_ds1307 0076                        view_log@ch 0035          display_dash_screen@speed 0032  
                      ?_log_event 002E               _init_digital_keypad 1161                          _i2c_read 11B4  
                        _i2c_stop 1F15             ??_display_dash_screen 0033                     set_time@delay 0043  
                     _read_EEPROM 134D               change_password@flag 0047                 _byte_write_EEPROM 1FE2  
          download_log@reset_flag 0027                  __size_of_dec2bcd 0041                  __size_of___awdiv 0069  
                __size_of___awmod 005B              ?_init_digital_keypad 0070                       _init_ds1307 1FC7  
                __size_of___lldiv 0068                  __size_of___lwdiv 0046                ?_byte_write_EEPROM 0075  
              __end_of__stringtab 1812                       _read_ds1307 1318                       _init_config 13F2  
               set_time@hour_flag 0044                      ??_login_menu 0031                       _init_timer2 1F1E  
             ??_byte_write_EEPROM 0076                   ___lwdiv@divisor 0022                   ___lwdiv@counter 0026  
                        __ptext10 13BA                          __ptext11 124E                          __ptext20 1167  
                        __ptext12 13F2                          __ptext21 0782                          __ptext13 127F  
                        __ptext30 1192                          __ptext22 1EFD                          __ptext14 1F1E  
                        __ptext31 1318                          __ptext23 091C                          __ptext15 12E4  
                        __ptext40 1F82                          __ptext32 1F33                          __ptext24 134D  
                        __ptext16 1668                          __ptext41 12B1                          __ptext33 11B4  
                        __ptext25 11D7                          __ptext17 1FC7                          __ptext42 1382  
                        __ptext34 146C                          __ptext26 1F3E                          __ptext18 1172  
                        __ptext43 1FE2                          __ptext35 154C                          __ptext27 1F97  
                        __ptext19 1161                          __ptext44 1F28                          __ptext36 16D0  
                        __ptext28 1605                          __ptext45 1F15                          __ptext37 0E01  
                        __ptext29 1739                          __ptext46 1F0C                          __ptext38 142C  
                        __ptext47 07F3                          __ptext39 1F49                          __ptext48 14AD  
                        __ptext49 14F3                          _get_time 1192                  __size_of_putchar 000B  
                __size_of_strncmp 0040                  __size_of_strncpy 0047                        strcpy@from 0074  
                        _init_i2c 12E4                          _init_adc 1EFD                          _read_adc 1F6E  
                   __size_of_main 0414           read_digital_keypad@mode 0075           read_digital_keypad@once 0053  
                   __size_of_puts 0026                        strncmp@len 0075             __end_of_log_car_event 13F2  
               ??_change_password 0031                     ?_clear_screen 0070         __end_of_byte_write_EEPROM 2000  
                        _set_time 045C                __end_of_login_menu 091C                          _view_log 0C3E  
                 view_log@log_pos 004A             ??_init_digital_keypad 0074                          main@gear 0190  
                       view_log@i 0034                          isr@count 00A7                      set_time@flag 0042  
                        init_ram0 1F5F                       ??_init_clcd 0077                       ??_init_uart 0031  
                        login@key 0030                       ??_log_event 002F                          intlevel1 0000  
            str_write_EEPROM@addr 0023              str_write_EEPROM@data 0020                     init_uart@baud 002D  
                ___lldiv@dividend 0024                         strncmp@s1 0022                         strncmp@s2 0074  
                       stringcode 180A                    ??_clear_screen 0021                         strncpy@cp 0025  
                       strncpy@to 0024              __end_of_write_ds1307 1192               _read_digital_keypad 1224  
                ___lldiv@quotient 0028                          strcpy@cp 0020                          strcpy@to 0021  
                        stringtab 1800               download_log@log_pos 0041                       _return_time 00A9  
          __size_of_i2c_rep_start 000B              ?_read_digital_keypad 0070                  write_ds1307@addr 0076  
                write_ds1307@data 0035        __size_of_byte_write_EEPROM 001E  
